

Microchip MPLAB XC8 Assembler V2.40 build 20220703182018 
                                                                                               Sat Apr 29 22:53:37 2023

Microchip MPLAB XC8 C Compiler v2.40 (Free license) build 20220703182018 Og1 
     1                           	processor	16F877A
     2                           	pagewidth 120
     3                           	opt	flic
     4                           	psect	idataBANK1,global,class=CODE,delta=2,noexec
     5                           	psect	strings,global,class=STRING,delta=2,noexec
     6                           	psect	cinit,global,class=CODE,merge=1,delta=2
     7                           	psect	dataBANK1,global,class=BANK1,space=1,delta=1,noexec
     8                           	psect	inittext,global,class=CODE,delta=2
     9                           	psect	cstackBANK1,global,class=BANK1,space=1,delta=1,noexec
    10                           	psect	cstackCOMMON,global,class=COMMON,space=1,delta=1,noexec
    11                           	psect	cstackBANK0,global,class=BANK0,space=1,delta=1,noexec
    12                           	psect	maintext,global,class=CODE,split=1,delta=2
    13                           	psect	text1,local,class=CODE,merge=1,delta=2,group=1
    14                           	psect	text2,local,class=CODE,merge=1,delta=2,group=1
    15                           	psect	text3,local,class=CODE,merge=1,delta=2,group=2
    16                           	psect	text4,local,class=CODE,merge=1,delta=2,group=2
    17                           	psect	text5,local,class=CODE,merge=1,delta=2,group=3
    18                           	psect	text6,local,class=CODE,merge=1,delta=2,group=1
    19                           	psect	text7,local,class=CODE,merge=1,delta=2,group=2
    20                           	psect	text8,local,class=CODE,merge=1,delta=2,group=2
    21                           	psect	text9,local,class=CODE,merge=1,delta=2,group=2
    22                           	psect	text10,local,class=CODE,merge=1,delta=2,group=2
    23                           	psect	text11,local,class=CODE,merge=1,delta=2,group=2
    24                           	psect	text12,local,class=CODE,merge=1,delta=2,group=2
    25                           	psect	text13,local,class=CODE,merge=1,delta=2,group=2
    26                           	psect	text14,local,class=CODE,merge=1,delta=2,group=2
    27                           	psect	text15,local,class=CODE,merge=1,delta=2,group=2
    28                           	psect	text16,local,class=CODE,merge=1,delta=2,group=2
    29                           	psect	text17,local,class=CODE,merge=1,delta=2,group=2
    30                           	psect	text18,local,class=CODE,merge=1,delta=2,group=2
    31                           	psect	text19,local,class=CODE,merge=1,delta=2,group=2
    32                           	psect	text20,local,class=CODE,merge=1,delta=2
    33                           	psect	text21,local,class=CODE,merge=1,delta=2
    34                           	psect	text22,local,class=CODE,merge=1,delta=2
    35                           	psect	text23,local,class=CODE,merge=1,delta=2,group=2
    36                           	psect	text24,local,class=CODE,merge=1,delta=2,group=2
    37                           	psect	text25,local,class=CODE,merge=1,delta=2,group=2
    38                           	psect	text26,local,class=CODE,merge=1,delta=2,group=2
    39                           	psect	text27,local,class=CODE,merge=1,delta=2
    40                           	psect	text28,local,class=CODE,merge=1,delta=2
    41                           	psect	idloc,global,abs,ovrld,class=IDLOC,space=5,delta=2,noexec
    42                           	psect	config,global,abs,ovrld,class=CONFIG,space=4,delta=2,noexec
    43                           	dabs	1,0x7E,2
    44     0000                     
    45                           ; Version 2.40
    46                           ; Generated 17/11/2021 GMT
    47                           ; 
    48                           ; Copyright © 2021, Microchip Technology Inc. and its subsidiaries ("Microchip")
    49                           ; All rights reserved.
    50                           ; 
    51                           ; This software is developed by Microchip Technology Inc. and its subsidiaries ("Microch
      +                          ip").
    52                           ; 
    53                           ; Redistribution and use in source and binary forms, with or without modification, are
    54                           ; permitted provided that the following conditions are met:
    55                           ; 
    56                           ;     1. Redistributions of source code must retain the above copyright notice, this lis
      +                          t of
    57                           ;        conditions and the following disclaimer.
    58                           ; 
    59                           ;     2. Redistributions in binary form must reproduce the above copyright notice, this 
      +                          list
    60                           ;        of conditions and the following disclaimer in the documentation and/or other
    61                           ;        materials provided with the distribution. Publication is not required when
    62                           ;        this file is used in an embedded application.
    63                           ; 
    64                           ;     3. Microchip's name may not be used to endorse or promote products derived from th
      +                          is
    65                           ;        software without specific prior written permission.
    66                           ; 
    67                           ; THIS SOFTWARE IS PROVIDED BY MICROCHIP "AS IS" AND ANY EXPRESS OR IMPLIED WARRANTIES,
    68                           ; INCLUDING, BUT NOT LIMITED TO, THE IMPLIED WARRANTIES OF MERCHANTABILITY AND FITNESS F
      +                          OR
    69                           ; PURPOSE ARE DISCLAIMED.  IN NO EVENT SHALL MICROCHIP BE LIABLE FOR ANY DIRECT, INDIREC
      +                          T,
    70                           ; INCIDENTAL, SPECIAL, EXEMPLARY, OR CONSEQUENTIAL DAMAGES (INCLUDING BUT NOT LIMITED TO
    71                           ; PROCUREMENT OF SUBSTITUTE GOODS OR SERVICES; LOSS OF USE, DATA OR PROFITS; OR BUSINESS
    72                           ; INTERRUPTION) HOWSOEVER CAUSED AND ON ANY THEORY OF LIABILITY, WHETHER IN CONTRACT, ST
      +                          RICT
    73                           ; LIABILITY, OR TORT (INCLUDING NEGLIGENCE OR OTHERWISE) ARISING IN ANY WAY OUT OF THE U
      +                          SE OF
    74                           ; THIS SOFTWARE, EVEN IF ADVISED OF THE POSSIBILITY OF SUCH DAMAGE.
    75                           ; 
    76                           ; 
    77                           ; Code-generator required, PIC16F877A Definitions
    78                           ; 
    79                           ; SFR Addresses
    80     0000                     	;# 
    81     0001                     	;# 
    82     0002                     	;# 
    83     0003                     	;# 
    84     0004                     	;# 
    85     0005                     	;# 
    86     0006                     	;# 
    87     0007                     	;# 
    88     0008                     	;# 
    89     0009                     	;# 
    90     000A                     	;# 
    91     000B                     	;# 
    92     000C                     	;# 
    93     000D                     	;# 
    94     000E                     	;# 
    95     000E                     	;# 
    96     000F                     	;# 
    97     0010                     	;# 
    98     0011                     	;# 
    99     0012                     	;# 
   100     0013                     	;# 
   101     0014                     	;# 
   102     0015                     	;# 
   103     0015                     	;# 
   104     0016                     	;# 
   105     0017                     	;# 
   106     0018                     	;# 
   107     0019                     	;# 
   108     001A                     	;# 
   109     001B                     	;# 
   110     001B                     	;# 
   111     001C                     	;# 
   112     001D                     	;# 
   113     001E                     	;# 
   114     001F                     	;# 
   115     0081                     	;# 
   116     0085                     	;# 
   117     0086                     	;# 
   118     0087                     	;# 
   119     0088                     	;# 
   120     0089                     	;# 
   121     008C                     	;# 
   122     008D                     	;# 
   123     008E                     	;# 
   124     0091                     	;# 
   125     0092                     	;# 
   126     0093                     	;# 
   127     0094                     	;# 
   128     0098                     	;# 
   129     0099                     	;# 
   130     009C                     	;# 
   131     009D                     	;# 
   132     009E                     	;# 
   133     009F                     	;# 
   134     010C                     	;# 
   135     010D                     	;# 
   136     010E                     	;# 
   137     010F                     	;# 
   138     018C                     	;# 
   139     018D                     	;# 
   140     0000                     	;# 
   141     0001                     	;# 
   142     0002                     	;# 
   143     0003                     	;# 
   144     0004                     	;# 
   145     0005                     	;# 
   146     0006                     	;# 
   147     0007                     	;# 
   148     0008                     	;# 
   149     0009                     	;# 
   150     000A                     	;# 
   151     000B                     	;# 
   152     000C                     	;# 
   153     000D                     	;# 
   154     000E                     	;# 
   155     000E                     	;# 
   156     000F                     	;# 
   157     0010                     	;# 
   158     0011                     	;# 
   159     0012                     	;# 
   160     0013                     	;# 
   161     0014                     	;# 
   162     0015                     	;# 
   163     0015                     	;# 
   164     0016                     	;# 
   165     0017                     	;# 
   166     0018                     	;# 
   167     0019                     	;# 
   168     001A                     	;# 
   169     001B                     	;# 
   170     001B                     	;# 
   171     001C                     	;# 
   172     001D                     	;# 
   173     001E                     	;# 
   174     001F                     	;# 
   175     0081                     	;# 
   176     0085                     	;# 
   177     0086                     	;# 
   178     0087                     	;# 
   179     0088                     	;# 
   180     0089                     	;# 
   181     008C                     	;# 
   182     008D                     	;# 
   183     008E                     	;# 
   184     0091                     	;# 
   185     0092                     	;# 
   186     0093                     	;# 
   187     0094                     	;# 
   188     0098                     	;# 
   189     0099                     	;# 
   190     009C                     	;# 
   191     009D                     	;# 
   192     009E                     	;# 
   193     009F                     	;# 
   194     010C                     	;# 
   195     010D                     	;# 
   196     010E                     	;# 
   197     010F                     	;# 
   198     018C                     	;# 
   199     018D                     	;# 
   200     0000                     	;# 
   201     0001                     	;# 
   202     0002                     	;# 
   203     0003                     	;# 
   204     0004                     	;# 
   205     0005                     	;# 
   206     0006                     	;# 
   207     0007                     	;# 
   208     0008                     	;# 
   209     0009                     	;# 
   210     000A                     	;# 
   211     000B                     	;# 
   212     000C                     	;# 
   213     000D                     	;# 
   214     000E                     	;# 
   215     000E                     	;# 
   216     000F                     	;# 
   217     0010                     	;# 
   218     0011                     	;# 
   219     0012                     	;# 
   220     0013                     	;# 
   221     0014                     	;# 
   222     0015                     	;# 
   223     0015                     	;# 
   224     0016                     	;# 
   225     0017                     	;# 
   226     0018                     	;# 
   227     0019                     	;# 
   228     001A                     	;# 
   229     001B                     	;# 
   230     001B                     	;# 
   231     001C                     	;# 
   232     001D                     	;# 
   233     001E                     	;# 
   234     001F                     	;# 
   235     0081                     	;# 
   236     0085                     	;# 
   237     0086                     	;# 
   238     0087                     	;# 
   239     0088                     	;# 
   240     0089                     	;# 
   241     008C                     	;# 
   242     008D                     	;# 
   243     008E                     	;# 
   244     0091                     	;# 
   245     0092                     	;# 
   246     0093                     	;# 
   247     0094                     	;# 
   248     0098                     	;# 
   249     0099                     	;# 
   250     009C                     	;# 
   251     009D                     	;# 
   252     009E                     	;# 
   253     009F                     	;# 
   254     010C                     	;# 
   255     010D                     	;# 
   256     010E                     	;# 
   257     010F                     	;# 
   258     018C                     	;# 
   259     018D                     	;# 
   260     0000                     	;# 
   261     0001                     	;# 
   262     0002                     	;# 
   263     0003                     	;# 
   264     0004                     	;# 
   265     0005                     	;# 
   266     0006                     	;# 
   267     0007                     	;# 
   268     0008                     	;# 
   269     0009                     	;# 
   270     000A                     	;# 
   271     000B                     	;# 
   272     000C                     	;# 
   273     000D                     	;# 
   274     000E                     	;# 
   275     000E                     	;# 
   276     000F                     	;# 
   277     0010                     	;# 
   278     0011                     	;# 
   279     0012                     	;# 
   280     0013                     	;# 
   281     0014                     	;# 
   282     0015                     	;# 
   283     0015                     	;# 
   284     0016                     	;# 
   285     0017                     	;# 
   286     0018                     	;# 
   287     0019                     	;# 
   288     001A                     	;# 
   289     001B                     	;# 
   290     001B                     	;# 
   291     001C                     	;# 
   292     001D                     	;# 
   293     001E                     	;# 
   294     001F                     	;# 
   295     0081                     	;# 
   296     0085                     	;# 
   297     0086                     	;# 
   298     0087                     	;# 
   299     0088                     	;# 
   300     0089                     	;# 
   301     008C                     	;# 
   302     008D                     	;# 
   303     008E                     	;# 
   304     0091                     	;# 
   305     0092                     	;# 
   306     0093                     	;# 
   307     0094                     	;# 
   308     0098                     	;# 
   309     0099                     	;# 
   310     009C                     	;# 
   311     009D                     	;# 
   312     009E                     	;# 
   313     009F                     	;# 
   314     010C                     	;# 
   315     010D                     	;# 
   316     010E                     	;# 
   317     010F                     	;# 
   318     018C                     	;# 
   319     018D                     	;# 
   320                           
   321                           	psect	idataBANK1
   322     1CCF                     __pidataBANK1:
   323                           
   324                           ;initializer for _str01
   325     1CCF  340B               	retlw	11
   326     1CD0  3400               	retlw	0
   327     1CD1  3400               	retlw	0
   328     1CD2  3400               	retlw	0
   329     1CD3  3400               	retlw	0
   330     1CD4  3400               	retlw	0
   331     1CD5  3400               	retlw	0
   332                           
   333                           	psect	strings
   334     1000                     __pstrings:
   335     1000                     stringtab:
   336     1000                     __stringtab:
   337     1000                     stringcode:	
   338                           ;	String table - string pointers are 1 byte each
   339                           
   340     1000                     stringdir:
   341     1000  3010               	movlw	high stringdir
   342     1001  008A               	movwf	10
   343     1002  0804               	movf	4,w
   344     1003  0A84               	incf	4,f
   345     1004  0782               	addwf	2,f
   346     1005                     __stringbase:
   347     1005  3400               	retlw	0
   348     1006                     __end_of__stringtab:
   349     1006                     __powers_:
   350     1006  3400               	retlw	0
   351     1007  3400               	retlw	0
   352     1008  3480               	retlw	128
   353     1009  343F               	retlw	63
   354     100A  3400               	retlw	0
   355     100B  3400               	retlw	0
   356     100C  3420               	retlw	32
   357     100D  3441               	retlw	65
   358     100E  3400               	retlw	0
   359     100F  3400               	retlw	0
   360     1010  34C8               	retlw	200
   361     1011  3442               	retlw	66
   362     1012  3400               	retlw	0
   363     1013  3400               	retlw	0
   364     1014  347A               	retlw	122
   365     1015  3444               	retlw	68
   366     1016  3400               	retlw	0
   367     1017  3440               	retlw	64
   368     1018  341C               	retlw	28
   369     1019  3446               	retlw	70
   370     101A  3400               	retlw	0
   371     101B  3450               	retlw	80
   372     101C  34C3               	retlw	195
   373     101D  3447               	retlw	71
   374     101E  3400               	retlw	0
   375     101F  3424               	retlw	36
   376     1020  3474               	retlw	116
   377     1021  3449               	retlw	73
   378     1022  3480               	retlw	128
   379     1023  3496               	retlw	150
   380     1024  3418               	retlw	24
   381     1025  344B               	retlw	75
   382     1026  3420               	retlw	32
   383     1027  34BC               	retlw	188
   384     1028  34BE               	retlw	190
   385     1029  344C               	retlw	76
   386     102A  3428               	retlw	40
   387     102B  346B               	retlw	107
   388     102C  346E               	retlw	110
   389     102D  344E               	retlw	78
   390     102E  34F9               	retlw	249
   391     102F  3402               	retlw	2
   392     1030  3415               	retlw	21
   393     1031  3450               	retlw	80
   394     1032  34EC               	retlw	236
   395     1033  3478               	retlw	120
   396     1034  34AD               	retlw	173
   397     1035  3460               	retlw	96
   398     1036  34CA               	retlw	202
   399     1037  34F2               	retlw	242
   400     1038  3449               	retlw	73
   401     1039  3471               	retlw	113
   402     103A                     __end_of__powers_:
   403     103A                     __npowers_:
   404     103A  3400               	retlw	0
   405     103B  3400               	retlw	0
   406     103C  3480               	retlw	128
   407     103D  343F               	retlw	63
   408     103E  34CD               	retlw	205
   409     103F  34CC               	retlw	204
   410     1040  34CC               	retlw	204
   411     1041  343D               	retlw	61
   412     1042  340A               	retlw	10
   413     1043  34D7               	retlw	215
   414     1044  3423               	retlw	35
   415     1045  343C               	retlw	60
   416     1046  346F               	retlw	111
   417     1047  3412               	retlw	18
   418     1048  3483               	retlw	131
   419     1049  343A               	retlw	58
   420     104A  3417               	retlw	23
   421     104B  34B7               	retlw	183
   422     104C  34D1               	retlw	209
   423     104D  3438               	retlw	56
   424     104E  34AC               	retlw	172
   425     104F  34C5               	retlw	197
   426     1050  3427               	retlw	39
   427     1051  3437               	retlw	55
   428     1052  34BD               	retlw	189
   429     1053  3437               	retlw	55
   430     1054  3486               	retlw	134
   431     1055  3435               	retlw	53
   432     1056  3495               	retlw	149
   433     1057  34BF               	retlw	191
   434     1058  34D6               	retlw	214
   435     1059  3433               	retlw	51
   436     105A  3477               	retlw	119
   437     105B  34CC               	retlw	204
   438     105C  342B               	retlw	43
   439     105D  3432               	retlw	50
   440     105E  345F               	retlw	95
   441     105F  3470               	retlw	112
   442     1060  3489               	retlw	137
   443     1061  3430               	retlw	48
   444     1062  34FF               	retlw	255
   445     1063  34E6               	retlw	230
   446     1064  34DB               	retlw	219
   447     1065  342E               	retlw	46
   448     1066  3408               	retlw	8
   449     1067  34E5               	retlw	229
   450     1068  343C               	retlw	60
   451     1069  341E               	retlw	30
   452     106A  3460               	retlw	96
   453     106B  3442               	retlw	66
   454     106C  34A2               	retlw	162
   455     106D  340D               	retlw	13
   456     106E                     __end_of__npowers_:
   457     106E                     _dpowers:
   458     106E  3401               	retlw	1
   459     106F  3400               	retlw	0
   460     1070  3400               	retlw	0
   461     1071  3400               	retlw	0
   462     1072  340A               	retlw	10
   463     1073  3400               	retlw	0
   464     1074  3400               	retlw	0
   465     1075  3400               	retlw	0
   466     1076  3464               	retlw	100
   467     1077  3400               	retlw	0
   468     1078  3400               	retlw	0
   469     1079  3400               	retlw	0
   470     107A  34E8               	retlw	232
   471     107B  3403               	retlw	3
   472     107C  3400               	retlw	0
   473     107D  3400               	retlw	0
   474     107E  3410               	retlw	16
   475     107F  3427               	retlw	39
   476     1080  3400               	retlw	0
   477     1081  3400               	retlw	0
   478     1082  34A0               	retlw	160
   479     1083  3486               	retlw	134
   480     1084  3401               	retlw	1
   481     1085  3400               	retlw	0
   482     1086  3440               	retlw	64
   483     1087  3442               	retlw	66
   484     1088  340F               	retlw	15
   485     1089  3400               	retlw	0
   486     108A  3480               	retlw	128
   487     108B  3496               	retlw	150
   488     108C  3498               	retlw	152
   489     108D  3400               	retlw	0
   490     108E  3400               	retlw	0
   491     108F  34E1               	retlw	225
   492     1090  34F5               	retlw	245
   493     1091  3405               	retlw	5
   494     1092  3400               	retlw	0
   495     1093  34CA               	retlw	202
   496     1094  349A               	retlw	154
   497     1095  343B               	retlw	59
   498     1096                     __end_of_dpowers:
   499     001E                     _ADRESH	set	30
   500     0005                     _PORTA	set	5
   501     0019                     _TXREG	set	25
   502     00FA                     _GO	set	250
   503     00F8                     _ADON	set	248
   504     00FE                     _ADCS0	set	254
   505     00C7                     _SPEN	set	199
   506     009E                     _ADRESL	set	158
   507     0085                     _TRISA	set	133
   508     0099                     _SPBRG	set	153
   509     04F8                     _PCFG0	set	1272
   510     04F9                     _PCFG1	set	1273
   511     04FA                     _PCFG2	set	1274
   512     04FB                     _PCFG3	set	1275
   513     04FF                     _ADFM	set	1279
   514     04C1                     _TRMT	set	1217
   515     04C0                     _TX9D	set	1216
   516     04C2                     _BRGH	set	1218
   517     04C4                     _SYNC	set	1220
   518     04C6                     _TX9	set	1222
   519     043F                     _TRISC7	set	1087
   520     043E                     _TRISC6	set	1086
   521     04C5                     _TXEN	set	1221
   522     1096                     STR_1:
   523     1096  3425               	retlw	37	;'%'
   524     1097  342E               	retlw	46	;'.'
   525     1098  3432               	retlw	50	;'2'
   526     1099  3466               	retlw	102	;'f'
   527     109A  3420               	retlw	32	;' '
   528     109B  3456               	retlw	86	;'V'
   529     109C  3400               	retlw	0
   530                           
   531                           	psect	cinit
   532     07EE                     start_initialization:	
   533                           ; #config settings
   534                           
   535     07EE                     __initialization:
   536                           
   537                           ; Initialize objects allocated to BANK1
   538     07EE  1383               	bcf	3,7	;select IRP bank0
   539     07EF  30CD               	movlw	low (__pdataBANK1+7)
   540     07F0  00FD               	movwf	btemp+-1
   541     07F1  301C               	movlw	high __pidataBANK1
   542     07F2  00FE               	movwf	btemp
   543     07F3  30CF               	movlw	low __pidataBANK1
   544     07F4  00FF               	movwf	btemp+1
   545     07F5  30C6               	movlw	low __pdataBANK1
   546     07F6  0084               	movwf	4
   547     07F7  160A  158A  2516  120A  118A  	fcall	init_ram0
   548     07FC                     end_of_initialization:	
   549                           ;End of C runtime variable initialization code
   550                           
   551     07FC                     __end_of__initialization:
   552     07FC  0183               	clrf	3
   553     07FD  160A  158A  2F92   	ljmp	_main	;jump to C main() function
   554                           
   555                           	psect	dataBANK1
   556     00C6                     __pdataBANK1:
   557     00C6                     _str01:
   558     00C6                     	ds	7
   559                           
   560                           	psect	inittext
   561     1D12                     init_fetch0:	
   562                           ;	Called with low address in FSR and high address in W
   563                           
   564     1D12  087E               	movf	btemp,w
   565     1D13  008A               	movwf	10
   566     1D14  087F               	movf	btemp+1,w
   567     1D15  0082               	movwf	2
   568     1D16                     init_ram0:	
   569                           ;Called with:
   570                           ;	high address of idata address in btemp 
   571                           ;	low address of idata address in btemp+1 
   572                           ;	low address of data in FSR
   573                           ;	high address + 1 of data in btemp-1
   574                           
   575     1D16  160A  158A  2512  160A  158A  	fcall	init_fetch0
   576     1D1B  0080               	movwf	0
   577     1D1C  0A84               	incf	4,f
   578     1D1D  0804               	movf	4,w
   579     1D1E  067D               	xorwf	btemp+-1,w
   580     1D1F  1903               	btfsc	3,2
   581     1D20  3400               	retlw	0
   582     1D21  0AFF               	incf	btemp+1,f
   583     1D22  1903               	btfsc	3,2
   584     1D23  0AFE               	incf	btemp,f
   585     1D24  2D16               	goto	init_ram0
   586                           
   587                           	psect	cstackBANK1
   588     00A0                     __pcstackBANK1:
   589     00A0                     ?_sprintf:
   590     00A0                     sprintf@f:	
   591                           ; 2 bytes @ 0x0
   592                           
   593                           
   594                           ; 1 bytes @ 0x0
   595     00A0                     	ds	5
   596     00A5                     ??_sprintf:
   597                           
   598                           ; 1 bytes @ 0x5
   599     00A5                     	ds	5
   600     00AA                     _sprintf$776:
   601                           
   602                           ; 4 bytes @ 0xA
   603     00AA                     	ds	4
   604     00AE                     sprintf@ap:
   605                           
   606                           ; 1 bytes @ 0xE
   607     00AE                     	ds	1
   608     00AF                     sprintf@flag:
   609                           
   610                           ; 2 bytes @ 0xF
   611     00AF                     	ds	2
   612     00B1                     sprintf@val:
   613                           
   614                           ; 4 bytes @ 0x11
   615     00B1                     	ds	4
   616     00B5                     sprintf@eexp:
   617                           
   618                           ; 2 bytes @ 0x15
   619     00B5                     	ds	2
   620     00B7                     sprintf@tmpval:
   621                           
   622                           ; 4 bytes @ 0x17
   623     00B7                     	ds	4
   624     00BB                     sprintf@sp:
   625                           
   626                           ; 1 bytes @ 0x1B
   627     00BB                     	ds	1
   628     00BC                     sprintf@prec:
   629                           
   630                           ; 2 bytes @ 0x1C
   631     00BC                     	ds	2
   632     00BE                     sprintf@fval:
   633                           
   634                           ; 4 bytes @ 0x1E
   635     00BE                     	ds	4
   636     00C2                     sprintf@c:
   637                           
   638                           ; 1 bytes @ 0x22
   639     00C2                     	ds	1
   640     00C3                     ??_main:
   641                           
   642                           ; 1 bytes @ 0x23
   643     00C3                     	ds	3
   644                           
   645                           	psect	cstackCOMMON
   646     0070                     __pcstackCOMMON:
   647     0070                     ?_isdigit:
   648     0070                     ?___fleq:	
   649                           ; 1 bit 
   650                           
   651     0070                     ?___flge:	
   652                           ; 1 bit 
   653                           
   654     0070                     ?_initialiseUART:	
   655                           ; 1 bit 
   656                           
   657     0070                     ??_initialiseUART:	
   658                           ; 1 bytes @ 0x0
   659                           
   660     0070                     ?_initTermoDatchik:	
   661                           ; 1 bytes @ 0x0
   662                           
   663     0070                     ??_initTermoDatchik:	
   664                           ; 1 bytes @ 0x0
   665                           
   666     0070                     ?_sendUART:	
   667                           ; 1 bytes @ 0x0
   668                           
   669     0070                     ??_sendUART:	
   670                           ; 1 bytes @ 0x0
   671                           
   672     0070                     ??_isdigit:	
   673                           ; 1 bytes @ 0x0
   674                           
   675     0070                     ?_main:	
   676                           ; 1 bytes @ 0x0
   677                           
   678     0070                     ?_delay:	
   679                           ; 1 bytes @ 0x0
   680                           
   681     0070                     ??_delay:	
   682                           ; 1 bytes @ 0x0
   683                           
   684     0070                     ?__Umul8_16:	
   685                           ; 1 bytes @ 0x0
   686                           
   687     0070                     ?___wmul:	
   688                           ; 2 bytes @ 0x0
   689                           
   690     0070                     ?___awmod:	
   691                           ; 2 bytes @ 0x0
   692                           
   693     0070                     ?___lwmod:	
   694                           ; 2 bytes @ 0x0
   695                           
   696     0070                     ?__tdiv_to_l_:	
   697                           ; 2 bytes @ 0x0
   698                           
   699     0070                     ?__div_to_l_:	
   700                           ; 4 bytes @ 0x0
   701                           
   702     0070                     ?___lldiv:	
   703                           ; 4 bytes @ 0x0
   704                           
   705     0070                     ?___flneg:	
   706                           ; 4 bytes @ 0x0
   707                           
   708     0070                     ?___llmod:	
   709                           ; 4 bytes @ 0x0
   710                           
   711     0070                     ?___xxtofl:	
   712                           ; 4 bytes @ 0x0
   713                           
   714     0070                     sendUART@ch:	
   715                           ; 4 bytes @ 0x0
   716                           
   717     0070                     __Umul8_16@multiplicand:	
   718                           ; 1 bytes @ 0x0
   719                           
   720     0070                     _isdigit$605:	
   721                           ; 1 bytes @ 0x0
   722                           
   723     0070                     delay@i:	
   724                           ; 1 bytes @ 0x0
   725                           
   726     0070                     ___wmul@multiplier:	
   727                           ; 2 bytes @ 0x0
   728                           
   729     0070                     ___awmod@divisor:	
   730                           ; 2 bytes @ 0x0
   731                           
   732     0070                     ___lwmod@divisor:	
   733                           ; 2 bytes @ 0x0
   734                           
   735     0070                     ___lldiv@divisor:	
   736                           ; 2 bytes @ 0x0
   737                           
   738     0070                     __div_to_l_@f1:	
   739                           ; 4 bytes @ 0x0
   740                           
   741     0070                     ___fleq@ff1:	
   742                           ; 4 bytes @ 0x0
   743                           
   744     0070                     ___flge@ff1:	
   745                           ; 4 bytes @ 0x0
   746                           
   747     0070                     ___flneg@f1:	
   748                           ; 4 bytes @ 0x0
   749                           
   750     0070                     __tdiv_to_l_@f1:	
   751                           ; 4 bytes @ 0x0
   752                           
   753     0070                     ___llmod@divisor:	
   754                           ; 4 bytes @ 0x0
   755                           
   756     0070                     ___xxtofl@val:	
   757                           ; 4 bytes @ 0x0
   758                           
   759                           
   760                           ; 4 bytes @ 0x0
   761     0070                     	ds	1
   762     0071                     isdigit@c:
   763                           
   764                           ; 1 bytes @ 0x1
   765     0071                     	ds	1
   766     0072                     ??__Umul8_16:
   767     0072                     ___wmul@multiplicand:	
   768                           ; 1 bytes @ 0x2
   769                           
   770     0072                     ___awmod@dividend:	
   771                           ; 2 bytes @ 0x2
   772                           
   773     0072                     ___lwmod@dividend:	
   774                           ; 2 bytes @ 0x2
   775                           
   776                           
   777                           ; 2 bytes @ 0x2
   778     0072                     	ds	2
   779     0074                     ??___wmul:
   780     0074                     ??___awmod:	
   781                           ; 1 bytes @ 0x4
   782                           
   783     0074                     ??___flneg:	
   784                           ; 1 bytes @ 0x4
   785                           
   786     0074                     ??___lwmod:	
   787                           ; 1 bytes @ 0x4
   788                           
   789     0074                     ??___xxtofl:	
   790                           ; 1 bytes @ 0x4
   791                           
   792     0074                     ___wmul@product:	
   793                           ; 1 bytes @ 0x4
   794                           
   795     0074                     __Umul8_16@product:	
   796                           ; 2 bytes @ 0x4
   797                           
   798     0074                     ___lldiv@dividend:	
   799                           ; 2 bytes @ 0x4
   800                           
   801     0074                     __div_to_l_@f2:	
   802                           ; 4 bytes @ 0x4
   803                           
   804     0074                     ___fleq@ff2:	
   805                           ; 4 bytes @ 0x4
   806                           
   807     0074                     ___flge@ff2:	
   808                           ; 4 bytes @ 0x4
   809                           
   810     0074                     __tdiv_to_l_@f2:	
   811                           ; 4 bytes @ 0x4
   812                           
   813     0074                     ___llmod@dividend:	
   814                           ; 4 bytes @ 0x4
   815                           
   816                           
   817                           ; 4 bytes @ 0x4
   818     0074                     	ds	1
   819     0075                     ___awmod@counter:
   820     0075                     ___lwmod@counter:	
   821                           ; 1 bytes @ 0x5
   822                           
   823                           
   824                           ; 1 bytes @ 0x5
   825     0075                     	ds	1
   826     0076                     ?___lwdiv:
   827     0076                     ___awmod@sign:	
   828                           ; 2 bytes @ 0x6
   829                           
   830     0076                     ___lwdiv@divisor:	
   831                           ; 1 bytes @ 0x6
   832                           
   833     0076                     __Umul8_16@word_mpld:	
   834                           ; 2 bytes @ 0x6
   835                           
   836                           
   837                           ; 2 bytes @ 0x6
   838     0076                     	ds	1
   839     0077                     ?___awdiv:
   840     0077                     ___awdiv@divisor:	
   841                           ; 2 bytes @ 0x7
   842                           
   843                           
   844                           ; 2 bytes @ 0x7
   845     0077                     	ds	1
   846     0078                     ??__tdiv_to_l_:
   847     0078                     ??__div_to_l_:	
   848                           ; 1 bytes @ 0x8
   849                           
   850     0078                     ??___lldiv:	
   851                           ; 1 bytes @ 0x8
   852                           
   853     0078                     ??___fleq:	
   854                           ; 1 bytes @ 0x8
   855                           
   856     0078                     ??___flge:	
   857                           ; 1 bytes @ 0x8
   858                           
   859     0078                     ??___llmod:	
   860                           ; 1 bytes @ 0x8
   861                           
   862     0078                     __Umul8_16@multiplier:	
   863                           ; 1 bytes @ 0x8
   864                           
   865     0078                     ___xxtofl@sign:	
   866                           ; 1 bytes @ 0x8
   867                           
   868     0078                     ___lwdiv@dividend:	
   869                           ; 1 bytes @ 0x8
   870                           
   871                           
   872                           ; 2 bytes @ 0x8
   873     0078                     	ds	1
   874     0079                     ___llmod@counter:
   875     0079                     ___xxtofl@exp:	
   876                           ; 1 bytes @ 0x9
   877                           
   878     0079                     ___awdiv@dividend:	
   879                           ; 1 bytes @ 0x9
   880                           
   881     0079                     ___lldiv@quotient:	
   882                           ; 2 bytes @ 0x9
   883                           
   884                           
   885                           ; 4 bytes @ 0x9
   886     0079                     	ds	1
   887     007A                     ??___lwdiv:
   888     007A                     ___xxtofl@arg:	
   889                           ; 1 bytes @ 0xA
   890                           
   891                           
   892                           ; 4 bytes @ 0xA
   893     007A                     	ds	1
   894     007B                     ??___awdiv:
   895     007B                     ___lwdiv@quotient:	
   896                           ; 1 bytes @ 0xB
   897                           
   898                           
   899                           ; 2 bytes @ 0xB
   900     007B                     	ds	2
   901     007D                     ___lldiv@counter:
   902     007D                     ___lwdiv@counter:	
   903                           ; 1 bytes @ 0xD
   904                           
   905                           
   906                           ; 1 bytes @ 0xD
   907     007D                     	ds	1
   908     007E                     ??___flsub:
   909                           
   910                           	psect	cstackBANK0
   911     0020                     __pcstackBANK0:	
   912                           ; 1 bytes @ 0xE
   913                           
   914     0020                     ___awdiv@counter:
   915     0020                     __div_to_l_@quot:	
   916                           ; 1 bytes @ 0x0
   917                           
   918     0020                     __tdiv_to_l_@quot:	
   919                           ; 4 bytes @ 0x0
   920                           
   921                           
   922                           ; 4 bytes @ 0x0
   923     0020                     	ds	1
   924     0021                     ___awdiv@sign:
   925                           
   926                           ; 1 bytes @ 0x1
   927     0021                     	ds	1
   928     0022                     ___awdiv@quotient:
   929                           
   930                           ; 2 bytes @ 0x2
   931     0022                     	ds	2
   932     0024                     ?___flmul:
   933     0024                     __div_to_l_@cntr:	
   934                           ; 4 bytes @ 0x4
   935                           
   936     0024                     __tdiv_to_l_@cntr:	
   937                           ; 1 bytes @ 0x4
   938                           
   939     0024                     ___flmul@b:	
   940                           ; 1 bytes @ 0x4
   941                           
   942                           
   943                           ; 4 bytes @ 0x4
   944     0024                     	ds	1
   945     0025                     __div_to_l_@exp1:
   946     0025                     __tdiv_to_l_@exp1:	
   947                           ; 1 bytes @ 0x5
   948                           
   949                           
   950                           ; 1 bytes @ 0x5
   951     0025                     	ds	3
   952     0028                     ___flmul@a:
   953                           
   954                           ; 4 bytes @ 0x8
   955     0028                     	ds	4
   956     002C                     ??___flmul:
   957                           
   958                           ; 1 bytes @ 0xC
   959     002C                     	ds	5
   960     0031                     ___flmul@sign:
   961                           
   962                           ; 1 bytes @ 0x11
   963     0031                     	ds	1
   964     0032                     ___flmul@grs:
   965                           
   966                           ; 4 bytes @ 0x12
   967     0032                     	ds	4
   968     0036                     ___flmul@aexp:
   969                           
   970                           ; 1 bytes @ 0x16
   971     0036                     	ds	1
   972     0037                     ___flmul@bexp:
   973                           
   974                           ; 1 bytes @ 0x17
   975     0037                     	ds	1
   976     0038                     ___flmul@prod:
   977                           
   978                           ; 4 bytes @ 0x18
   979     0038                     	ds	4
   980     003C                     ___flmul@temp:
   981                           
   982                           ; 2 bytes @ 0x1C
   983     003C                     	ds	2
   984     003E                     ?_fround:
   985     003E                     ?_scale:	
   986                           ; 4 bytes @ 0x1E
   987                           
   988     003E                     ?___fldiv:	
   989                           ; 4 bytes @ 0x1E
   990                           
   991     003E                     ___fldiv@a:	
   992                           ; 4 bytes @ 0x1E
   993                           
   994                           
   995                           ; 4 bytes @ 0x1E
   996     003E                     	ds	4
   997     0042                     ??_fround:
   998     0042                     ??_scale:	
   999                           ; 1 bytes @ 0x22
  1000                           
  1001     0042                     ___fldiv@b:	
  1002                           ; 1 bytes @ 0x22
  1003                           
  1004                           
  1005                           ; 4 bytes @ 0x22
  1006     0042                     	ds	4
  1007     0046                     ??___fldiv:
  1008                           
  1009                           ; 1 bytes @ 0x26
  1010     0046                     	ds	3
  1011     0049                     _fround$774:
  1012                           
  1013                           ; 4 bytes @ 0x29
  1014     0049                     	ds	2
  1015     004B                     ___fldiv@rem:
  1016                           
  1017                           ; 4 bytes @ 0x2B
  1018     004B                     	ds	1
  1019     004C                     _scale$775:
  1020                           
  1021                           ; 4 bytes @ 0x2C
  1022     004C                     	ds	1
  1023     004D                     _fround$773:
  1024                           
  1025                           ; 4 bytes @ 0x2D
  1026     004D                     	ds	2
  1027     004F                     ___fldiv@sign:
  1028                           
  1029                           ; 1 bytes @ 0x2F
  1030     004F                     	ds	1
  1031     0050                     scale@scl:
  1032     0050                     ___fldiv@new_exp:	
  1033                           ; 1 bytes @ 0x30
  1034                           
  1035                           
  1036                           ; 2 bytes @ 0x30
  1037     0050                     	ds	1
  1038     0051                     ?___fltol:
  1039     0051                     fround@prec:	
  1040                           ; 4 bytes @ 0x31
  1041                           
  1042     0051                     ___fltol@f1:	
  1043                           ; 1 bytes @ 0x31
  1044                           
  1045                           
  1046                           ; 4 bytes @ 0x31
  1047     0051                     	ds	1
  1048     0052                     ?___fladd:
  1049     0052                     ___fladd@b:	
  1050                           ; 4 bytes @ 0x32
  1051                           
  1052     0052                     ___fldiv@grs:	
  1053                           ; 4 bytes @ 0x32
  1054                           
  1055                           
  1056                           ; 4 bytes @ 0x32
  1057     0052                     	ds	3
  1058     0055                     ??___fltol:
  1059                           
  1060                           ; 1 bytes @ 0x35
  1061     0055                     	ds	1
  1062     0056                     ___fldiv@bexp:
  1063     0056                     ___fladd@a:	
  1064                           ; 1 bytes @ 0x36
  1065                           
  1066                           
  1067                           ; 4 bytes @ 0x36
  1068     0056                     	ds	1
  1069     0057                     ___fldiv@aexp:
  1070                           
  1071                           ; 1 bytes @ 0x37
  1072     0057                     	ds	1
  1073     0058                     ?_measure:
  1074                           
  1075                           ; 4 bytes @ 0x38
  1076     0058                     	ds	1
  1077     0059                     ___fltol@sign1:
  1078                           
  1079                           ; 1 bytes @ 0x39
  1080     0059                     	ds	1
  1081     005A                     ??___fladd:
  1082     005A                     ___fltol@exp1:	
  1083                           ; 1 bytes @ 0x3A
  1084                           
  1085                           
  1086                           ; 1 bytes @ 0x3A
  1087     005A                     	ds	2
  1088     005C                     ??_measure:
  1089                           
  1090                           ; 1 bytes @ 0x3C
  1091     005C                     	ds	2
  1092     005E                     measure@adc_data:
  1093                           
  1094                           ; 4 bytes @ 0x3E
  1095     005E                     	ds	4
  1096     0062                     ___fladd@signs:
  1097     0062                     measure@adc_data_raw:	
  1098                           ; 1 bytes @ 0x42
  1099                           
  1100                           
  1101                           ; 2 bytes @ 0x42
  1102     0062                     	ds	1
  1103     0063                     ___fladd@aexp:
  1104                           
  1105                           ; 1 bytes @ 0x43
  1106     0063                     	ds	1
  1107     0064                     ___fladd@bexp:
  1108                           
  1109                           ; 1 bytes @ 0x44
  1110     0064                     	ds	1
  1111     0065                     ___fladd@grs:
  1112                           
  1113                           ; 1 bytes @ 0x45
  1114     0065                     	ds	1
  1115     0066                     ?___flsub:
  1116     0066                     ___flsub@a:	
  1117                           ; 4 bytes @ 0x46
  1118                           
  1119                           
  1120                           ; 4 bytes @ 0x46
  1121     0066                     	ds	4
  1122     006A                     ___flsub@b:
  1123                           
  1124                           ; 4 bytes @ 0x4A
  1125     006A                     	ds	4
  1126     006E                     main@index_of_string:
  1127                           
  1128                           ; 2 bytes @ 0x4E
  1129     006E                     	ds	2
  1130                           
  1131                           	psect	maintext
  1132     1F92                     __pmaintext:	
  1133 ;;
  1134 ;;Main: autosize = 0, tempsize = 3, incstack = 0, save=0
  1135 ;;
  1136 ;; *************** function _main *****************
  1137 ;; Defined at:
  1138 ;;		line 8 in file "termometr.c"
  1139 ;; Parameters:    Size  Location     Type
  1140 ;;		None
  1141 ;; Auto vars:     Size  Location     Type
  1142 ;;  index_of_str    2   78[BANK0 ] int 
  1143 ;; Return value:  Size  Location     Type
  1144 ;;                  1    wreg      void 
  1145 ;; Registers used:
  1146 ;;		wreg, fsr0l, fsr0h, status,2, status,0, btemp+1, pclath, cstack
  1147 ;; Tracked objects:
  1148 ;;		On entry : B00/0
  1149 ;;		On exit  : 0/0
  1150 ;;		Unchanged: 0/0
  1151 ;; Data sizes:     COMMON   BANK0   BANK1   BANK3   BANK2
  1152 ;;      Params:         0       0       0       0       0
  1153 ;;      Locals:         0       2       0       0       0
  1154 ;;      Temps:          0       0       3       0       0
  1155 ;;      Totals:         0       2       3       0       0
  1156 ;;Total ram usage:        5 bytes
  1157 ;; Hardware stack levels required when called: 4
  1158 ;; This function calls:
  1159 ;;		_initTermoDatchik
  1160 ;;		_initialiseUART
  1161 ;;		_measure
  1162 ;;		_sendUART
  1163 ;;		_sprintf
  1164 ;; This function is called by:
  1165 ;;		Startup code after reset
  1166 ;; This function uses a non-reentrant model
  1167 ;;
  1168                           
  1169     1F92                     _main:	
  1170                           ;psect for function _main
  1171                           
  1172     1F92                     l3387:	
  1173                           ;incstack = 0
  1174                           ; Regs used in _main: [wreg-fsr0h+status,2+status,0+btemp+1+pclath+cstack]
  1175                           
  1176                           
  1177                           ;termometr.c: 10:   initialiseUART();
  1178     1F92  160A  118A  209E  160A  158A  	fcall	_initialiseUART
  1179                           
  1180                           ;termometr.c: 16: initTermoDatchik();
  1181     1F97  160A  158A  24FF  160A  158A  	fcall	_initTermoDatchik
  1182     1F9C                     l3389:
  1183                           
  1184                           ;termometr.c: 17: int index_of_string=0;
  1185     1F9C  1283               	bcf	3,5	;RP0=0, select bank0
  1186     1F9D  1303               	bcf	3,6	;RP1=0, select bank0
  1187     1F9E  01EE               	clrf	main@index_of_string
  1188     1F9F  01EF               	clrf	main@index_of_string+1
  1189     1FA0                     l3391:
  1190                           
  1191                           ;termometr.c: 18: sprintf(str01,"%.2f V",measure ());
  1192     1FA0  3091               	movlw	(low ((STR_1-__stringbase)| (0+32768)))& (0+255)
  1193     1FA1  1683               	bsf	3,5	;RP0=1, select bank1
  1194     1FA2  1303               	bcf	3,6	;RP1=0, select bank1
  1195     1FA3  00A0               	movwf	sprintf@f^(0+128)
  1196     1FA4  160A  118A  214D  160A  158A  	fcall	_measure
  1197     1FA9  1283               	bcf	3,5	;RP0=0, select bank0
  1198     1FAA  1303               	bcf	3,6	;RP1=0, select bank0
  1199     1FAB  085B               	movf	?_measure+3,w
  1200     1FAC  1683               	bsf	3,5	;RP0=1, select bank1
  1201     1FAD  1303               	bcf	3,6	;RP1=0, select bank1
  1202     1FAE  00A4               	movwf	((?_sprintf+3)^(0+128)+1)
  1203     1FAF  1283               	bcf	3,5	;RP0=0, select bank0
  1204     1FB0  1303               	bcf	3,6	;RP1=0, select bank0
  1205     1FB1  085A               	movf	?_measure+2,w
  1206     1FB2  1683               	bsf	3,5	;RP0=1, select bank1
  1207     1FB3  1303               	bcf	3,6	;RP1=0, select bank1
  1208     1FB4  00A3               	movwf	((?_sprintf+2)^(0+128)+1)
  1209     1FB5  1283               	bcf	3,5	;RP0=0, select bank0
  1210     1FB6  1303               	bcf	3,6	;RP1=0, select bank0
  1211     1FB7  0859               	movf	?_measure+1,w
  1212     1FB8  1683               	bsf	3,5	;RP0=1, select bank1
  1213     1FB9  1303               	bcf	3,6	;RP1=0, select bank1
  1214     1FBA  00A2               	movwf	((?_sprintf+1)^(0+128)+1)
  1215     1FBB  1283               	bcf	3,5	;RP0=0, select bank0
  1216     1FBC  1303               	bcf	3,6	;RP1=0, select bank0
  1217     1FBD  0858               	movf	?_measure,w
  1218     1FBE  1683               	bsf	3,5	;RP0=1, select bank1
  1219     1FBF  1303               	bcf	3,6	;RP1=0, select bank1
  1220     1FC0  00A1               	movwf	(?_sprintf^(0+128)+1)
  1221     1FC1  30C6               	movlw	(low (_str01| 0))& (0+255)
  1222     1FC2  120A  118A  21AE  160A  158A  	fcall	_sprintf
  1223     1FC7                     l3393:
  1224                           
  1225                           ;termometr.c: 19: _delay((unsigned long)((5000)*(4000000/4000.0)));
  1226     1FC7  301A               	movlw	26
  1227     1FC8  1683               	bsf	3,5	;RP0=1, select bank1
  1228     1FC9  1303               	bcf	3,6	;RP1=0, select bank1
  1229     1FCA  00C5               	movwf	(??_main^(0+128)+2)
  1230     1FCB  305E               	movlw	94
  1231     1FCC  00C4               	movwf	(??_main^(0+128)+1)
  1232     1FCD  306D               	movlw	109
  1233     1FCE  00C3               	movwf	??_main^(0+128)
  1234     1FCF                     u5837:
  1235     1FCF  0BC3               	decfsz	??_main^(0+128),f
  1236     1FD0  2FCF               	goto	u5837
  1237     1FD1  0BC4               	decfsz	(??_main^(0+128)+1),f
  1238     1FD2  2FCF               	goto	u5837
  1239     1FD3  0BC5               	decfsz	(??_main^(0+128)+2),f
  1240     1FD4  2FCF               	goto	u5837
  1241     1FD5  2FD6               	nop2
  1242                           
  1243                           ;termometr.c: 20: while(index_of_string<=7)
  1244     1FD6  2FEB               	goto	l3399
  1245     1FD7                     l3395:
  1246                           
  1247                           ;termometr.c: 21: {;termometr.c: 22: sendUART((char)str01[index_of_string]);
  1248     1FD7  1283               	bcf	3,5	;RP0=0, select bank0
  1249     1FD8  1303               	bcf	3,6	;RP1=0, select bank0
  1250     1FD9  086E               	movf	main@index_of_string,w
  1251     1FDA  3EC6               	addlw	(low (_str01| 0))& (0+255)
  1252     1FDB  0084               	movwf	4
  1253     1FDC  1383               	bcf	3,7	;select IRP bank1
  1254     1FDD  0800               	movf	0,w
  1255     1FDE  160A  158A  24E1  160A  158A  	fcall	_sendUART
  1256     1FE3                     l3397:
  1257                           
  1258                           ;termometr.c: 23: index_of_string++;
  1259     1FE3  3001               	movlw	1
  1260     1FE4  1283               	bcf	3,5	;RP0=0, select bank0
  1261     1FE5  1303               	bcf	3,6	;RP1=0, select bank0
  1262     1FE6  07EE               	addwf	main@index_of_string,f
  1263     1FE7  1803               	skipnc
  1264     1FE8  0AEF               	incf	main@index_of_string+1,f
  1265     1FE9  3000               	movlw	0
  1266     1FEA  07EF               	addwf	main@index_of_string+1,f
  1267     1FEB                     l3399:
  1268                           
  1269                           ;termometr.c: 20: while(index_of_string<=7)
  1270     1FEB  1283               	bcf	3,5	;RP0=0, select bank0
  1271     1FEC  1303               	bcf	3,6	;RP1=0, select bank0
  1272     1FED  086F               	movf	main@index_of_string+1,w
  1273     1FEE  3A80               	xorlw	128
  1274     1FEF  00FF               	movwf	btemp+1
  1275     1FF0  3080               	movlw	128
  1276     1FF1  027F               	subwf	btemp+1,w
  1277     1FF2  1D03               	skipz
  1278     1FF3  2FF6               	goto	u5825
  1279     1FF4  3008               	movlw	8
  1280     1FF5  026E               	subwf	main@index_of_string,w
  1281     1FF6                     u5825:
  1282     1FF6  1C03               	skipc
  1283     1FF7  2FF9               	goto	u5821
  1284     1FF8  2FFA               	goto	u5820
  1285     1FF9                     u5821:
  1286     1FF9  2FD7               	goto	l3395
  1287     1FFA                     u5820:
  1288     1FFA                     l23:
  1289                           
  1290                           ;termometr.c: 26:   TXEN = 0;
  1291     1FFA  1683               	bsf	3,5	;RP0=1, select bank1
  1292     1FFB  1303               	bcf	3,6	;RP1=0, select bank1
  1293     1FFC  1298               	bcf	24,5	;volatile
  1294     1FFD                     l24:	
  1295                           ;termometr.c: 36:     return ;
  1296                           
  1297     1FFD  120A  118A  2800   	ljmp	start
  1298     2000                     __end_of_main:
  1299                           
  1300                           	psect	text1
  1301     01AE                     __ptext1:	
  1302 ;; *************** function _sprintf *****************
  1303 ;; Defined at:
  1304 ;;		line 505 in file "C:\Program Files\Microchip\xc8\v2.40\pic\sources\c90\common\doprnt.c"
  1305 ;; Parameters:    Size  Location     Type
  1306 ;;  sp              1    wreg     PTR unsigned char 
  1307 ;;		 -> str01(7), 
  1308 ;;  f               1    0[BANK1 ] PTR const unsigned char 
  1309 ;;		 -> STR_1(7), 
  1310 ;; Auto vars:     Size  Location     Type
  1311 ;;  sp              1   27[BANK1 ] PTR unsigned char 
  1312 ;;		 -> str01(7), 
  1313 ;;  fval            4   30[BANK1 ] PTR unsigned char 
  1314 ;;  tmpval          4   23[BANK1 ] struct .
  1315 ;;  val             4   17[BANK1 ] unsigned long 
  1316 ;;  prec            2   28[BANK1 ] int 
  1317 ;;  eexp            2   21[BANK1 ] int 
  1318 ;;  flag            2   15[BANK1 ] unsigned short 
  1319 ;;  cp              2    0        PTR const unsigned char 
  1320 ;;  len             2    0        unsigned int 
  1321 ;;  width           2    0        int 
  1322 ;;  c               1   34[BANK1 ] unsigned char 
  1323 ;;  ap              1   14[BANK1 ] PTR void [1]
  1324 ;;		 -> ?_sprintf(2), 
  1325 ;;  d               1    0        unsigned char 
  1326 ;; Return value:  Size  Location     Type
  1327 ;;                  2    0[BANK1 ] int 
  1328 ;; Registers used:
  1329 ;;		wreg, fsr0l, fsr0h, status,2, status,0, btemp+1, pclath, cstack
  1330 ;; Tracked objects:
  1331 ;;		On entry : 0/0
  1332 ;;		On exit  : 0/0
  1333 ;;		Unchanged: 0/0
  1334 ;; Data sizes:     COMMON   BANK0   BANK1   BANK3   BANK2
  1335 ;;      Params:         0       0       5       0       0
  1336 ;;      Locals:         0       0      25       0       0
  1337 ;;      Temps:          0       0       5       0       0
  1338 ;;      Totals:         0       0      35       0       0
  1339 ;;Total ram usage:       35 bytes
  1340 ;; Hardware stack levels used: 1
  1341 ;; Hardware stack levels required when called: 3
  1342 ;; This function calls:
  1343 ;;		___awdiv
  1344 ;;		___fladd
  1345 ;;		___fleq
  1346 ;;		___flge
  1347 ;;		___flmul
  1348 ;;		___flneg
  1349 ;;		___flsub
  1350 ;;		___fltol
  1351 ;;		___lldiv
  1352 ;;		___llmod
  1353 ;;		___wmul
  1354 ;;		___xxtofl
  1355 ;;		__div_to_l_
  1356 ;;		__tdiv_to_l_
  1357 ;;		_fround
  1358 ;;		_isdigit
  1359 ;;		_scale
  1360 ;; This function is called by:
  1361 ;;		_main
  1362 ;; This function uses a non-reentrant model
  1363 ;;
  1364                           
  1365     01AE                     _sprintf:	
  1366                           ;psect for function _sprintf
  1367                           
  1368                           
  1369                           ;incstack = 0
  1370                           ; Regs used in _sprintf: [wreg-fsr0h+status,2+status,0+btemp+1+pclath+cstack]
  1371                           ;sprintf@sp stored from wreg
  1372     01AE  1683               	bsf	3,5	;RP0=1, select bank1
  1373     01AF  1303               	bcf	3,6	;RP1=0, select bank1
  1374     01B0  00BB               	movwf	sprintf@sp^(0+128)
  1375     01B1                     l3177:
  1376                           
  1377                           ;C:\Program Files\Microchip\xc8\v2.40\pic\sources\c90\common\doprnt.c: 505: sprintf(char
      +                           * sp, const char * f, ...);C:\Program Files\Microchip\xc8\v2.40\pic\sources\c90\common\
      +                          doprnt.c: 506: {;C:\Program Files\Microchip\xc8\v2.40\pic\sources\c90\common\doprnt.c: 5
      +                          07:  va_list ap;;C:\Program Files\Microchip\xc8\v2.40\pic\sources\c90\common\doprnt.c: 5
      +                          12:  char c;;C:\Program Files\Microchip\xc8\v2.40\pic\sources\c90\common\doprnt.c: 514: 
      +                           int width;;C:\Program Files\Microchip\xc8\v2.40\pic\sources\c90\common\doprnt.c: 517:  
      +                          int prec;
  1378     01B1  30A1               	movlw	(low ((?_sprintf| 0+1)))& (0+255)
  1379     01B2  00AE               	movwf	sprintf@ap^(0+128)
  1380                           
  1381                           ;C:\Program Files\Microchip\xc8\v2.40\pic\sources\c90\common\doprnt.c: 553:  while((c = 
      +                          *f++)) {
  1382     01B3  2FD9               	goto	l3371
  1383     01B4                     l3179:
  1384                           
  1385                           ;C:\Program Files\Microchip\xc8\v2.40\pic\sources\c90\common\doprnt.c: 555:   if(c != '%
      +                          ')
  1386     01B4  3025               	movlw	37
  1387     01B5  0642               	xorwf	sprintf@c^(0+128),w
  1388     01B6  1903               	btfsc	3,2
  1389     01B7  29B9               	goto	u5461
  1390     01B8  29BA               	goto	u5460
  1391     01B9                     u5461:
  1392     01B9  29C4               	goto	l3185
  1393     01BA                     u5460:
  1394     01BA                     l3181:
  1395                           
  1396                           ;C:\Program Files\Microchip\xc8\v2.40\pic\sources\c90\common\doprnt.c: 557:   {;C:\Progr
      +                          am Files\Microchip\xc8\v2.40\pic\sources\c90\common\doprnt.c: 558:    ((*sp++ = (c)));
  1397     01BA  083B               	movf	sprintf@sp^(0+128),w
  1398     01BB  0084               	movwf	4
  1399     01BC  0842               	movf	sprintf@c^(0+128),w
  1400     01BD  1383               	bcf	3,7	;select IRP bank0
  1401     01BE  0080               	movwf	0
  1402     01BF                     l3183:
  1403     01BF  3001               	movlw	1
  1404     01C0  00A5               	movwf	??_sprintf^(0+128)
  1405     01C1  0825               	movf	??_sprintf^(0+128),w
  1406     01C2  07BB               	addwf	sprintf@sp^(0+128),f
  1407                           
  1408                           ;C:\Program Files\Microchip\xc8\v2.40\pic\sources\c90\common\doprnt.c: 559:    continue;
  1409     01C3  2FD9               	goto	l3371
  1410     01C4                     l3185:
  1411                           
  1412                           ;C:\Program Files\Microchip\xc8\v2.40\pic\sources\c90\common\doprnt.c: 565:   flag = 0;
  1413     01C4  01AF               	clrf	sprintf@flag^(0+128)
  1414     01C5  01B0               	clrf	(sprintf@flag+1)^(0+128)
  1415     01C6                     l3187:
  1416                           
  1417                           ;C:\Program Files\Microchip\xc8\v2.40\pic\sources\c90\common\doprnt.c: 628:   if(*f == '
      +                          .') {
  1418     01C6  0820               	movf	sprintf@f^(0+128),w
  1419     01C7  0084               	movwf	4
  1420     01C8  160A  118A  2000  120A  118A  	fcall	stringdir
  1421     01CD  3A2E               	xorlw	46
  1422     01CE  1D03               	skipz
  1423     01CF  29D1               	goto	u5471
  1424     01D0  29D2               	goto	u5470
  1425     01D1                     u5471:
  1426     01D1  2A17               	goto	l3203
  1427     01D2                     u5470:
  1428     01D2                     l3189:
  1429                           
  1430                           ;C:\Program Files\Microchip\xc8\v2.40\pic\sources\c90\common\doprnt.c: 629:    flag |= 0
      +                          x4000;
  1431     01D2  1730               	bsf	(sprintf@flag^(0+128)+1),6
  1432     01D3                     l3191:
  1433                           
  1434                           ;C:\Program Files\Microchip\xc8\v2.40\pic\sources\c90\common\doprnt.c: 630:    f++;
  1435     01D3  3001               	movlw	1
  1436     01D4  00A5               	movwf	??_sprintf^(0+128)
  1437     01D5  0825               	movf	??_sprintf^(0+128),w
  1438     01D6  07A0               	addwf	sprintf@f^(0+128),f
  1439     01D7                     l3193:
  1440                           
  1441                           ;C:\Program Files\Microchip\xc8\v2.40\pic\sources\c90\common\doprnt.c: 644:    {;C:\Prog
      +                          ram Files\Microchip\xc8\v2.40\pic\sources\c90\common\doprnt.c: 645:     prec = 0;
  1442     01D7  01BC               	clrf	sprintf@prec^(0+128)
  1443     01D8  01BD               	clrf	(sprintf@prec+1)^(0+128)
  1444                           
  1445                           ;C:\Program Files\Microchip\xc8\v2.40\pic\sources\c90\common\doprnt.c: 646:     while(is
      +                          digit((unsigned)*f)) {
  1446     01D9  2A06               	goto	l3201
  1447     01DA                     l3195:
  1448                           
  1449                           ;C:\Program Files\Microchip\xc8\v2.40\pic\sources\c90\common\doprnt.c: 647:      prec *=
      +                           10;
  1450     01DA  300A               	movlw	10
  1451     01DB  00F0               	movwf	___wmul@multiplier
  1452     01DC  3000               	movlw	0
  1453     01DD  00F1               	movwf	___wmul@multiplier+1
  1454     01DE  1683               	bsf	3,5	;RP0=1, select bank1
  1455     01DF  1303               	bcf	3,6	;RP1=0, select bank1
  1456     01E0  083D               	movf	(sprintf@prec+1)^(0+128),w
  1457     01E1  00F3               	movwf	___wmul@multiplicand+1
  1458     01E2  083C               	movf	sprintf@prec^(0+128),w
  1459     01E3  00F2               	movwf	___wmul@multiplicand
  1460     01E4  160A  158A  255F  120A  118A  	fcall	___wmul
  1461     01E9  0871               	movf	?___wmul+1,w
  1462     01EA  1683               	bsf	3,5	;RP0=1, select bank1
  1463     01EB  1303               	bcf	3,6	;RP1=0, select bank1
  1464     01EC  00BD               	movwf	(sprintf@prec+1)^(0+128)
  1465     01ED  0870               	movf	?___wmul,w
  1466     01EE  00BC               	movwf	sprintf@prec^(0+128)
  1467     01EF                     l3197:
  1468                           
  1469                           ;C:\Program Files\Microchip\xc8\v2.40\pic\sources\c90\common\doprnt.c: 648:         prec
      +                           += *f++ - '0';
  1470     01EF  0820               	movf	sprintf@f^(0+128),w
  1471     01F0  0084               	movwf	4
  1472     01F1  160A  118A  2000  120A  118A  	fcall	stringdir
  1473     01F6  3ED0               	addlw	208
  1474     01F7  00A5               	movwf	??_sprintf^(0+128)
  1475     01F8  30FF               	movlw	255
  1476     01F9  1803               	skipnc
  1477     01FA  3000               	movlw	0
  1478     01FB  00A6               	movwf	(??_sprintf^(0+128)+1)
  1479     01FC  0825               	movf	??_sprintf^(0+128),w
  1480     01FD  07BC               	addwf	sprintf@prec^(0+128),f
  1481     01FE  1803               	skipnc
  1482     01FF  0ABD               	incf	(sprintf@prec+1)^(0+128),f
  1483     0200  0826               	movf	(??_sprintf+1)^(0+128),w
  1484     0201  07BD               	addwf	(sprintf@prec+1)^(0+128),f
  1485     0202                     l3199:
  1486     0202  3001               	movlw	1
  1487     0203  00A5               	movwf	??_sprintf^(0+128)
  1488     0204  0825               	movf	??_sprintf^(0+128),w
  1489     0205  07A0               	addwf	sprintf@f^(0+128),f
  1490     0206                     l3201:
  1491                           
  1492                           ;C:\Program Files\Microchip\xc8\v2.40\pic\sources\c90\common\doprnt.c: 646:     while(is
      +                          digit((unsigned)*f)) {
  1493     0206  0820               	movf	sprintf@f^(0+128),w
  1494     0207  0084               	movwf	4
  1495     0208  160A  118A  2000  120A  118A  	fcall	stringdir
  1496     020D  160A  158A  24ED  120A  118A  	fcall	_isdigit
  1497     0212  1803               	btfsc	3,0
  1498     0213  2A15               	goto	u5481
  1499     0214  2A16               	goto	u5480
  1500     0215                     u5481:
  1501     0215  29DA               	goto	l3195
  1502     0216                     u5480:
  1503     0216  2A1D               	goto	l3209
  1504     0217                     l3203:
  1505                           
  1506                           ;C:\Program Files\Microchip\xc8\v2.40\pic\sources\c90\common\doprnt.c: 652:    prec = 0;
  1507     0217  01BC               	clrf	sprintf@prec^(0+128)
  1508     0218  01BD               	clrf	(sprintf@prec+1)^(0+128)
  1509     0219                     l3205:
  1510                           
  1511                           ;C:\Program Files\Microchip\xc8\v2.40\pic\sources\c90\common\doprnt.c: 654:    flag |= 0
      +                          x1000;
  1512     0219  1630               	bsf	(sprintf@flag^(0+128)+1),4
  1513     021A  2A1D               	goto	l3209
  1514     021B                     l223:	
  1515                           ;C:\Program Files\Microchip\xc8\v2.40\pic\sources\c90\common\doprnt.c: 688:   case 'f':
  1516                           
  1517                           
  1518                           ;C:\Program Files\Microchip\xc8\v2.40\pic\sources\c90\common\doprnt.c: 689:    flag |= 0
      +                          x400;
  1519     021B  1530               	bsf	(sprintf@flag^(0+128)+1),2
  1520                           
  1521                           ;C:\Program Files\Microchip\xc8\v2.40\pic\sources\c90\common\doprnt.c: 690:    break;
  1522     021C  2A39               	goto	l3211
  1523     021D                     l3209:
  1524     021D  3001               	movlw	1
  1525     021E  1683               	bsf	3,5	;RP0=1, select bank1
  1526     021F  1303               	bcf	3,6	;RP1=0, select bank1
  1527     0220  07A0               	addwf	sprintf@f^(0+128),f
  1528     0221  30FF               	movlw	-1
  1529     0222  0720               	addwf	sprintf@f^(0+128),w
  1530     0223  0084               	movwf	4
  1531     0224  160A  118A  2000  120A  118A  	fcall	stringdir
  1532     0229  00C2               	movwf	sprintf@c^(0+128)
  1533     022A  00A5               	movwf	??_sprintf^(0+128)
  1534     022B  01A6               	clrf	(??_sprintf^(0+128)+1)
  1535                           
  1536                           ; Switch on 2 bytes has been partitioned into a top level switch of size 1, and 1 sub-sw
      +                          itches
  1537                           ; Switch size 1, requested type "simple"
  1538                           ; Number of cases is 1, Range of values is 0 to 0
  1539                           ; switch strategies available:
  1540                           ; Name         Instructions Cycles
  1541                           ; simple_byte            4     3 (average)
  1542                           ; direct_byte           11     8 (fixed)
  1543                           ; jumptable            260     6 (fixed)
  1544                           ;	Chosen strategy is simple_byte
  1545     022C  0826               	movf	(??_sprintf+1)^(0+128),w
  1546     022D  3A00               	xorlw	0	; case 0
  1547     022E  1903               	skipnz
  1548     022F  2A31               	goto	l3431
  1549     0230  2FD9               	goto	l3371
  1550     0231                     l3431:
  1551                           
  1552                           ; Switch size 1, requested type "simple"
  1553                           ; Number of cases is 2, Range of values is 0 to 102
  1554                           ; switch strategies available:
  1555                           ; Name         Instructions Cycles
  1556                           ; simple_byte            7     4 (average)
  1557                           ; jumptable            260     6 (fixed)
  1558                           ;	Chosen strategy is simple_byte
  1559     0231  0825               	movf	??_sprintf^(0+128),w
  1560     0232  3A00               	xorlw	0	; case 0
  1561     0233  1903               	skipnz
  1562     0234  2FE9               	goto	l3373
  1563     0235  3A66               	xorlw	102	; case 102
  1564     0236  1903               	skipnz
  1565     0237  2A1B               	goto	l223
  1566     0238  2FD9               	goto	l3371
  1567     0239                     l3211:
  1568                           
  1569                           ;C:\Program Files\Microchip\xc8\v2.40\pic\sources\c90\common\doprnt.c: 851:   if(flag & 
      +                          (0x700)) {
  1570     0239  3000               	movlw	0
  1571     023A  052F               	andwf	sprintf@flag^(0+128),w
  1572     023B  00A5               	movwf	??_sprintf^(0+128)
  1573     023C  3007               	movlw	7
  1574     023D  0530               	andwf	(sprintf@flag+1)^(0+128),w
  1575     023E  00A6               	movwf	(??_sprintf+1)^(0+128)
  1576     023F  0825               	movf	??_sprintf^(0+128),w
  1577     0240  0426               	iorwf	(??_sprintf^(0+128)+1),w
  1578     0241  1903               	btfsc	3,2
  1579     0242  2A44               	goto	u5491
  1580     0243  2A45               	goto	u5490
  1581     0244                     u5491:
  1582     0244  2F96               	goto	l3353
  1583     0245                     u5490:
  1584     0245                     l3213:
  1585                           
  1586                           ;C:\Program Files\Microchip\xc8\v2.40\pic\sources\c90\common\doprnt.c: 853:    if(flag &
      +                           0x1000)
  1587     0245  1E30               	btfss	(sprintf@flag+1)^(0+128),4
  1588     0246  2A48               	goto	u5501
  1589     0247  2A49               	goto	u5500
  1590     0248                     u5501:
  1591     0248  2A4D               	goto	l3217
  1592     0249                     u5500:
  1593     0249                     l3215:
  1594                           
  1595                           ;C:\Program Files\Microchip\xc8\v2.40\pic\sources\c90\common\doprnt.c: 855:     prec = 6
      +                          ;
  1596     0249  3006               	movlw	6
  1597     024A  00BC               	movwf	sprintf@prec^(0+128)
  1598     024B  3000               	movlw	0
  1599     024C  00BD               	movwf	(sprintf@prec^(0+128)+1)
  1600     024D                     l3217:
  1601                           
  1602                           ;C:\Program Files\Microchip\xc8\v2.40\pic\sources\c90\common\doprnt.c: 856:    fval = (*
      +                          (double *)__va_arg((*(double **)ap), (double)0));
  1603     024D  082E               	movf	sprintf@ap^(0+128),w
  1604     024E  0084               	movwf	4
  1605     024F  1383               	bcf	3,7	;select IRP bank0
  1606     0250  0800               	movf	0,w
  1607     0251  00BE               	movwf	sprintf@fval^(0+128)
  1608     0252  0A84               	incf	4,f
  1609     0253  0800               	movf	0,w
  1610     0254  00BF               	movwf	(sprintf@fval+1)^(0+128)
  1611     0255  0A84               	incf	4,f
  1612     0256  0800               	movf	0,w
  1613     0257  00C0               	movwf	(sprintf@fval+2)^(0+128)
  1614     0258  0A84               	incf	4,f
  1615     0259  0800               	movf	0,w
  1616     025A  00C1               	movwf	(sprintf@fval+3)^(0+128)
  1617     025B                     l3219:
  1618     025B  3004               	movlw	4
  1619     025C  00A5               	movwf	??_sprintf^(0+128)
  1620     025D  0825               	movf	??_sprintf^(0+128),w
  1621     025E  07AE               	addwf	sprintf@ap^(0+128),f
  1622     025F                     l3221:
  1623                           
  1624                           ;C:\Program Files\Microchip\xc8\v2.40\pic\sources\c90\common\doprnt.c: 857:    if(fval <
      +                           0.0) {
  1625     025F  0841               	movf	(sprintf@fval+3)^(0+128),w
  1626     0260  00F3               	movwf	___flge@ff1+3
  1627     0261  0840               	movf	(sprintf@fval+2)^(0+128),w
  1628     0262  00F2               	movwf	___flge@ff1+2
  1629     0263  083F               	movf	(sprintf@fval+1)^(0+128),w
  1630     0264  00F1               	movwf	___flge@ff1+1
  1631     0265  083E               	movf	sprintf@fval^(0+128),w
  1632     0266  00F0               	movwf	___flge@ff1
  1633     0267  3000               	movlw	0
  1634     0268  00F7               	movwf	___flge@ff2+3
  1635     0269  3000               	movlw	0
  1636     026A  00F6               	movwf	___flge@ff2+2
  1637     026B  3000               	movlw	0
  1638     026C  00F5               	movwf	___flge@ff2+1
  1639     026D  3000               	movlw	0
  1640     026E  00F4               	movwf	___flge@ff2
  1641     026F  120A  158A  2003  120A  118A  	fcall	___flge
  1642     0274  1803               	btfsc	3,0
  1643     0275  2A77               	goto	u5511
  1644     0276  2A78               	goto	u5510
  1645     0277                     u5511:
  1646     0277  2A95               	goto	l3227
  1647     0278                     u5510:
  1648     0278                     l3223:
  1649                           
  1650                           ;C:\Program Files\Microchip\xc8\v2.40\pic\sources\c90\common\doprnt.c: 858:     fval = -
      +                          fval;
  1651     0278  1683               	bsf	3,5	;RP0=1, select bank1
  1652     0279  1303               	bcf	3,6	;RP1=0, select bank1
  1653     027A  0841               	movf	(sprintf@fval+3)^(0+128),w
  1654     027B  00F3               	movwf	___flneg@f1+3
  1655     027C  0840               	movf	(sprintf@fval+2)^(0+128),w
  1656     027D  00F2               	movwf	___flneg@f1+2
  1657     027E  083F               	movf	(sprintf@fval+1)^(0+128),w
  1658     027F  00F1               	movwf	___flneg@f1+1
  1659     0280  083E               	movf	sprintf@fval^(0+128),w
  1660     0281  00F0               	movwf	___flneg@f1
  1661     0282  160A  158A  24D6  120A  118A  	fcall	___flneg
  1662     0287  0873               	movf	?___flneg+3,w
  1663     0288  1683               	bsf	3,5	;RP0=1, select bank1
  1664     0289  1303               	bcf	3,6	;RP1=0, select bank1
  1665     028A  00C1               	movwf	(sprintf@fval+3)^(0+128)
  1666     028B  0872               	movf	?___flneg+2,w
  1667     028C  00C0               	movwf	(sprintf@fval+2)^(0+128)
  1668     028D  0871               	movf	?___flneg+1,w
  1669     028E  00BF               	movwf	(sprintf@fval+1)^(0+128)
  1670     028F  0870               	movf	?___flneg,w
  1671     0290  00BE               	movwf	sprintf@fval^(0+128)
  1672     0291                     l3225:
  1673                           
  1674                           ;C:\Program Files\Microchip\xc8\v2.40\pic\sources\c90\common\doprnt.c: 859:     flag |= 
      +                          0x03;
  1675     0291  3003               	movlw	3
  1676     0292  04AF               	iorwf	sprintf@flag^(0+128),f
  1677     0293  3000               	movlw	0
  1678     0294  04B0               	iorwf	(sprintf@flag+1)^(0+128),f
  1679     0295                     l3227:
  1680                           
  1681                           ;C:\Program Files\Microchip\xc8\v2.40\pic\sources\c90\common\doprnt.c: 861:    eexp = 0;
  1682     0295  1683               	bsf	3,5	;RP0=1, select bank1
  1683     0296  1303               	bcf	3,6	;RP1=0, select bank1
  1684     0297  01B5               	clrf	sprintf@eexp^(0+128)
  1685     0298  01B6               	clrf	(sprintf@eexp+1)^(0+128)
  1686     0299                     l3229:
  1687                           
  1688                           ;C:\Program Files\Microchip\xc8\v2.40\pic\sources\c90\common\doprnt.c: 862:    if( fval!
      +                          =0) {
  1689     0299  0841               	movf	(sprintf@fval+3)^(0+128),w
  1690     029A  00F3               	movwf	___fleq@ff1+3
  1691     029B  0840               	movf	(sprintf@fval+2)^(0+128),w
  1692     029C  00F2               	movwf	___fleq@ff1+2
  1693     029D  083F               	movf	(sprintf@fval+1)^(0+128),w
  1694     029E  00F1               	movwf	___fleq@ff1+1
  1695     029F  083E               	movf	sprintf@fval^(0+128),w
  1696     02A0  00F0               	movwf	___fleq@ff1
  1697     02A1  3000               	movlw	0
  1698     02A2  00F7               	movwf	___fleq@ff2+3
  1699     02A3  3000               	movlw	0
  1700     02A4  00F6               	movwf	___fleq@ff2+2
  1701     02A5  3000               	movlw	0
  1702     02A6  00F5               	movwf	___fleq@ff2+1
  1703     02A7  3000               	movlw	0
  1704     02A8  00F4               	movwf	___fleq@ff2
  1705     02A9  160A  158A  25C8  120A  118A  	fcall	___fleq
  1706     02AE  1803               	btfsc	3,0
  1707     02AF  2AB1               	goto	u5521
  1708     02B0  2AB2               	goto	u5520
  1709     02B1                     u5521:
  1710     02B1  2BA2               	goto	l3255
  1711     02B2                     u5520:
  1712     02B2                     l3231:
  1713                           
  1714                           ;C:\Program Files\Microchip\xc8\v2.40\pic\sources\c90\common\doprnt.c: 863:     (void)(*
      +                          (&eexp) = (unsigned char)((*(unsigned long *)&fval >> 23) & 255) - 126);
  1715     02B2  1003               	clrc
  1716     02B3  1683               	bsf	3,5	;RP0=1, select bank1
  1717     02B4  1303               	bcf	3,6	;RP1=0, select bank1
  1718     02B5  0D40               	rlf	(sprintf@fval+2)^(0+128),w
  1719     02B6  0D41               	rlf	(sprintf@fval+3)^(0+128),w
  1720     02B7  3E82               	addlw	130
  1721     02B8  00B5               	movwf	sprintf@eexp^(0+128)
  1722     02B9  30FF               	movlw	255
  1723     02BA  1803               	skipnc
  1724     02BB  3000               	movlw	0
  1725     02BC  00B6               	movwf	(sprintf@eexp^(0+128)+1)
  1726     02BD                     l3233:
  1727                           
  1728                           ;C:\Program Files\Microchip\xc8\v2.40\pic\sources\c90\common\doprnt.c: 864:     eexp--;
  1729     02BD  30FF               	movlw	255
  1730     02BE  07B5               	addwf	sprintf@eexp^(0+128),f
  1731     02BF  1803               	skipnc
  1732     02C0  0AB6               	incf	(sprintf@eexp+1)^(0+128),f
  1733     02C1  30FF               	movlw	255
  1734     02C2  07B6               	addwf	(sprintf@eexp+1)^(0+128),f
  1735     02C3                     l3235:
  1736                           
  1737                           ;C:\Program Files\Microchip\xc8\v2.40\pic\sources\c90\common\doprnt.c: 865:     eexp *= 
      +                          3;
  1738     02C3  3003               	movlw	3
  1739     02C4  00F0               	movwf	___wmul@multiplier
  1740     02C5  3000               	movlw	0
  1741     02C6  00F1               	movwf	___wmul@multiplier+1
  1742     02C7  0836               	movf	(sprintf@eexp+1)^(0+128),w
  1743     02C8  00F3               	movwf	___wmul@multiplicand+1
  1744     02C9  0835               	movf	sprintf@eexp^(0+128),w
  1745     02CA  00F2               	movwf	___wmul@multiplicand
  1746     02CB  160A  158A  255F  120A  118A  	fcall	___wmul
  1747     02D0  0871               	movf	?___wmul+1,w
  1748     02D1  1683               	bsf	3,5	;RP0=1, select bank1
  1749     02D2  1303               	bcf	3,6	;RP1=0, select bank1
  1750     02D3  00B6               	movwf	(sprintf@eexp+1)^(0+128)
  1751     02D4  0870               	movf	?___wmul,w
  1752     02D5  00B5               	movwf	sprintf@eexp^(0+128)
  1753     02D6                     l3237:
  1754                           
  1755                           ;C:\Program Files\Microchip\xc8\v2.40\pic\sources\c90\common\doprnt.c: 866:     eexp /= 
      +                          10;
  1756     02D6  300A               	movlw	10
  1757     02D7  00F7               	movwf	___awdiv@divisor
  1758     02D8  3000               	movlw	0
  1759     02D9  00F8               	movwf	___awdiv@divisor+1
  1760     02DA  0836               	movf	(sprintf@eexp+1)^(0+128),w
  1761     02DB  00FA               	movwf	___awdiv@dividend+1
  1762     02DC  0835               	movf	sprintf@eexp^(0+128),w
  1763     02DD  00F9               	movwf	___awdiv@dividend
  1764     02DE  160A  158A  2729  120A  118A  	fcall	___awdiv
  1765     02E3  0878               	movf	?___awdiv+1,w
  1766     02E4  1683               	bsf	3,5	;RP0=1, select bank1
  1767     02E5  1303               	bcf	3,6	;RP1=0, select bank1
  1768     02E6  00B6               	movwf	(sprintf@eexp+1)^(0+128)
  1769     02E7  0877               	movf	?___awdiv,w
  1770     02E8  00B5               	movwf	sprintf@eexp^(0+128)
  1771     02E9                     l3239:
  1772                           
  1773                           ;C:\Program Files\Microchip\xc8\v2.40\pic\sources\c90\common\doprnt.c: 867:     if(eexp 
      +                          < 0)
  1774     02E9  1FB6               	btfss	(sprintf@eexp+1)^(0+128),7
  1775     02EA  2AEC               	goto	u5531
  1776     02EB  2AED               	goto	u5530
  1777     02EC                     u5531:
  1778     02EC  2AF3               	goto	l3243
  1779     02ED                     u5530:
  1780     02ED                     l3241:
  1781                           
  1782                           ;C:\Program Files\Microchip\xc8\v2.40\pic\sources\c90\common\doprnt.c: 868:      eexp--;
  1783     02ED  30FF               	movlw	255
  1784     02EE  07B5               	addwf	sprintf@eexp^(0+128),f
  1785     02EF  1803               	skipnc
  1786     02F0  0AB6               	incf	(sprintf@eexp+1)^(0+128),f
  1787     02F1  30FF               	movlw	255
  1788     02F2  07B6               	addwf	(sprintf@eexp+1)^(0+128),f
  1789     02F3                     l3243:
  1790                           
  1791                           ;C:\Program Files\Microchip\xc8\v2.40\pic\sources\c90\common\doprnt.c: 872:     tmpval.i
      +                          nteg = scale(-eexp);
  1792     02F3  0335               	decf	sprintf@eexp^(0+128),w
  1793     02F4  3AFF               	xorlw	255
  1794     02F5  120A  158A  24A1  120A  118A  	fcall	_scale
  1795     02FA  1283               	bcf	3,5	;RP0=0, select bank0
  1796     02FB  1303               	bcf	3,6	;RP1=0, select bank0
  1797     02FC  0841               	movf	?_scale+3,w
  1798     02FD  1683               	bsf	3,5	;RP0=1, select bank1
  1799     02FE  1303               	bcf	3,6	;RP1=0, select bank1
  1800     02FF  00BA               	movwf	(sprintf@tmpval+3)^(0+128)
  1801     0300  1283               	bcf	3,5	;RP0=0, select bank0
  1802     0301  1303               	bcf	3,6	;RP1=0, select bank0
  1803     0302  0840               	movf	?_scale+2,w
  1804     0303  1683               	bsf	3,5	;RP0=1, select bank1
  1805     0304  1303               	bcf	3,6	;RP1=0, select bank1
  1806     0305  00B9               	movwf	(sprintf@tmpval+2)^(0+128)
  1807     0306  1283               	bcf	3,5	;RP0=0, select bank0
  1808     0307  1303               	bcf	3,6	;RP1=0, select bank0
  1809     0308  083F               	movf	?_scale+1,w
  1810     0309  1683               	bsf	3,5	;RP0=1, select bank1
  1811     030A  1303               	bcf	3,6	;RP1=0, select bank1
  1812     030B  00B8               	movwf	(sprintf@tmpval+1)^(0+128)
  1813     030C  1283               	bcf	3,5	;RP0=0, select bank0
  1814     030D  1303               	bcf	3,6	;RP1=0, select bank0
  1815     030E  083E               	movf	?_scale,w
  1816     030F  1683               	bsf	3,5	;RP0=1, select bank1
  1817     0310  1303               	bcf	3,6	;RP1=0, select bank1
  1818     0311  00B7               	movwf	sprintf@tmpval^(0+128)
  1819     0312                     l3245:
  1820                           
  1821                           ;C:\Program Files\Microchip\xc8\v2.40\pic\sources\c90\common\doprnt.c: 873:     tmpval.i
      +                          nteg *= fval;
  1822     0312  0841               	movf	(sprintf@fval+3)^(0+128),w
  1823     0313  1283               	bcf	3,5	;RP0=0, select bank0
  1824     0314  1303               	bcf	3,6	;RP1=0, select bank0
  1825     0315  00A7               	movwf	___flmul@b+3
  1826     0316  1683               	bsf	3,5	;RP0=1, select bank1
  1827     0317  1303               	bcf	3,6	;RP1=0, select bank1
  1828     0318  0840               	movf	(sprintf@fval+2)^(0+128),w
  1829     0319  1283               	bcf	3,5	;RP0=0, select bank0
  1830     031A  1303               	bcf	3,6	;RP1=0, select bank0
  1831     031B  00A6               	movwf	___flmul@b+2
  1832     031C  1683               	bsf	3,5	;RP0=1, select bank1
  1833     031D  1303               	bcf	3,6	;RP1=0, select bank1
  1834     031E  083F               	movf	(sprintf@fval+1)^(0+128),w
  1835     031F  1283               	bcf	3,5	;RP0=0, select bank0
  1836     0320  1303               	bcf	3,6	;RP1=0, select bank0
  1837     0321  00A5               	movwf	___flmul@b+1
  1838     0322  1683               	bsf	3,5	;RP0=1, select bank1
  1839     0323  1303               	bcf	3,6	;RP1=0, select bank1
  1840     0324  083E               	movf	sprintf@fval^(0+128),w
  1841     0325  1283               	bcf	3,5	;RP0=0, select bank0
  1842     0326  1303               	bcf	3,6	;RP1=0, select bank0
  1843     0327  00A4               	movwf	___flmul@b
  1844     0328  1683               	bsf	3,5	;RP0=1, select bank1
  1845     0329  1303               	bcf	3,6	;RP1=0, select bank1
  1846     032A  083A               	movf	(sprintf@tmpval+3)^(0+128),w
  1847     032B  1283               	bcf	3,5	;RP0=0, select bank0
  1848     032C  1303               	bcf	3,6	;RP1=0, select bank0
  1849     032D  00AB               	movwf	___flmul@a+3
  1850     032E  1683               	bsf	3,5	;RP0=1, select bank1
  1851     032F  1303               	bcf	3,6	;RP1=0, select bank1
  1852     0330  0839               	movf	(sprintf@tmpval+2)^(0+128),w
  1853     0331  1283               	bcf	3,5	;RP0=0, select bank0
  1854     0332  1303               	bcf	3,6	;RP1=0, select bank0
  1855     0333  00AA               	movwf	___flmul@a+2
  1856     0334  1683               	bsf	3,5	;RP0=1, select bank1
  1857     0335  1303               	bcf	3,6	;RP1=0, select bank1
  1858     0336  0838               	movf	(sprintf@tmpval+1)^(0+128),w
  1859     0337  1283               	bcf	3,5	;RP0=0, select bank0
  1860     0338  1303               	bcf	3,6	;RP1=0, select bank0
  1861     0339  00A9               	movwf	___flmul@a+1
  1862     033A  1683               	bsf	3,5	;RP0=1, select bank1
  1863     033B  1303               	bcf	3,6	;RP1=0, select bank1
  1864     033C  0837               	movf	sprintf@tmpval^(0+128),w
  1865     033D  1283               	bcf	3,5	;RP0=0, select bank0
  1866     033E  1303               	bcf	3,6	;RP1=0, select bank0
  1867     033F  00A8               	movwf	___flmul@a
  1868     0340  120A  158A  215C  120A  118A  	fcall	___flmul
  1869     0345  1283               	bcf	3,5	;RP0=0, select bank0
  1870     0346  1303               	bcf	3,6	;RP1=0, select bank0
  1871     0347  0827               	movf	?___flmul+3,w
  1872     0348  1683               	bsf	3,5	;RP0=1, select bank1
  1873     0349  1303               	bcf	3,6	;RP1=0, select bank1
  1874     034A  00BA               	movwf	(sprintf@tmpval+3)^(0+128)
  1875     034B  1283               	bcf	3,5	;RP0=0, select bank0
  1876     034C  1303               	bcf	3,6	;RP1=0, select bank0
  1877     034D  0826               	movf	?___flmul+2,w
  1878     034E  1683               	bsf	3,5	;RP0=1, select bank1
  1879     034F  1303               	bcf	3,6	;RP1=0, select bank1
  1880     0350  00B9               	movwf	(sprintf@tmpval+2)^(0+128)
  1881     0351  1283               	bcf	3,5	;RP0=0, select bank0
  1882     0352  1303               	bcf	3,6	;RP1=0, select bank0
  1883     0353  0825               	movf	?___flmul+1,w
  1884     0354  1683               	bsf	3,5	;RP0=1, select bank1
  1885     0355  1303               	bcf	3,6	;RP1=0, select bank1
  1886     0356  00B8               	movwf	(sprintf@tmpval+1)^(0+128)
  1887     0357  1283               	bcf	3,5	;RP0=0, select bank0
  1888     0358  1303               	bcf	3,6	;RP1=0, select bank0
  1889     0359  0824               	movf	?___flmul,w
  1890     035A  1683               	bsf	3,5	;RP0=1, select bank1
  1891     035B  1303               	bcf	3,6	;RP1=0, select bank1
  1892     035C  00B7               	movwf	sprintf@tmpval^(0+128)
  1893     035D                     l3247:
  1894                           
  1895                           ;C:\Program Files\Microchip\xc8\v2.40\pic\sources\c90\common\doprnt.c: 874:     if(tmpva
      +                          l.integ < 1.0)
  1896     035D  083A               	movf	(sprintf@tmpval+3)^(0+128),w
  1897     035E  00F3               	movwf	___flge@ff1+3
  1898     035F  0839               	movf	(sprintf@tmpval+2)^(0+128),w
  1899     0360  00F2               	movwf	___flge@ff1+2
  1900     0361  0838               	movf	(sprintf@tmpval+1)^(0+128),w
  1901     0362  00F1               	movwf	___flge@ff1+1
  1902     0363  0837               	movf	sprintf@tmpval^(0+128),w
  1903     0364  00F0               	movwf	___flge@ff1
  1904     0365  303F               	movlw	63
  1905     0366  00F7               	movwf	___flge@ff2+3
  1906     0367  3080               	movlw	128
  1907     0368  00F6               	movwf	___flge@ff2+2
  1908     0369  3000               	movlw	0
  1909     036A  00F5               	movwf	___flge@ff2+1
  1910     036B  3000               	movlw	0
  1911     036C  00F4               	movwf	___flge@ff2
  1912     036D  120A  158A  2003  120A  118A  	fcall	___flge
  1913     0372  1803               	btfsc	3,0
  1914     0373  2B75               	goto	u5541
  1915     0374  2B76               	goto	u5540
  1916     0375                     u5541:
  1917     0375  2B7F               	goto	l3251
  1918     0376                     u5540:
  1919     0376                     l3249:
  1920                           
  1921                           ;C:\Program Files\Microchip\xc8\v2.40\pic\sources\c90\common\doprnt.c: 875:      eexp--;
  1922     0376  30FF               	movlw	255
  1923     0377  1683               	bsf	3,5	;RP0=1, select bank1
  1924     0378  1303               	bcf	3,6	;RP1=0, select bank1
  1925     0379  07B5               	addwf	sprintf@eexp^(0+128),f
  1926     037A  1803               	skipnc
  1927     037B  0AB6               	incf	(sprintf@eexp+1)^(0+128),f
  1928     037C  30FF               	movlw	255
  1929     037D  07B6               	addwf	(sprintf@eexp+1)^(0+128),f
  1930     037E  2BA2               	goto	l3255
  1931     037F                     l3251:
  1932     037F  1683               	bsf	3,5	;RP0=1, select bank1
  1933     0380  1303               	bcf	3,6	;RP1=0, select bank1
  1934     0381  083A               	movf	(sprintf@tmpval+3)^(0+128),w
  1935     0382  00F3               	movwf	___flge@ff1+3
  1936     0383  0839               	movf	(sprintf@tmpval+2)^(0+128),w
  1937     0384  00F2               	movwf	___flge@ff1+2
  1938     0385  0838               	movf	(sprintf@tmpval+1)^(0+128),w
  1939     0386  00F1               	movwf	___flge@ff1+1
  1940     0387  0837               	movf	sprintf@tmpval^(0+128),w
  1941     0388  00F0               	movwf	___flge@ff1
  1942     0389  3041               	movlw	65
  1943     038A  00F7               	movwf	___flge@ff2+3
  1944     038B  3020               	movlw	32
  1945     038C  00F6               	movwf	___flge@ff2+2
  1946     038D  3000               	movlw	0
  1947     038E  00F5               	movwf	___flge@ff2+1
  1948     038F  3000               	movlw	0
  1949     0390  00F4               	movwf	___flge@ff2
  1950     0391  120A  158A  2003  120A  118A  	fcall	___flge
  1951     0396  1C03               	btfss	3,0
  1952     0397  2B99               	goto	u5551
  1953     0398  2B9A               	goto	u5550
  1954     0399                     u5551:
  1955     0399  2BA2               	goto	l3255
  1956     039A                     u5550:
  1957     039A                     l3253:
  1958                           
  1959                           ;C:\Program Files\Microchip\xc8\v2.40\pic\sources\c90\common\doprnt.c: 877:      eexp++;
  1960     039A  3001               	movlw	1
  1961     039B  1683               	bsf	3,5	;RP0=1, select bank1
  1962     039C  1303               	bcf	3,6	;RP1=0, select bank1
  1963     039D  07B5               	addwf	sprintf@eexp^(0+128),f
  1964     039E  1803               	skipnc
  1965     039F  0AB6               	incf	(sprintf@eexp+1)^(0+128),f
  1966     03A0  3000               	movlw	0
  1967     03A1  07B6               	addwf	(sprintf@eexp+1)^(0+128),f
  1968     03A2                     l3255:
  1969                           
  1970                           ;C:\Program Files\Microchip\xc8\v2.40\pic\sources\c90\common\doprnt.c: 1138:      if(pre
      +                          c <= 12)
  1971     03A2  1683               	bsf	3,5	;RP0=1, select bank1
  1972     03A3  1303               	bcf	3,6	;RP1=0, select bank1
  1973     03A4  083D               	movf	(sprintf@prec+1)^(0+128),w
  1974     03A5  3A80               	xorlw	128
  1975     03A6  00FF               	movwf	btemp+1
  1976     03A7  3080               	movlw	128
  1977     03A8  027F               	subwf	btemp+1,w
  1978     03A9  1D03               	skipz
  1979     03AA  2BAD               	goto	u5565
  1980     03AB  300D               	movlw	13
  1981     03AC  023C               	subwf	sprintf@prec^(0+128),w
  1982     03AD                     u5565:
  1983     03AD  1803               	skipnc
  1984     03AE  2BB0               	goto	u5561
  1985     03AF  2BB1               	goto	u5560
  1986     03B0                     u5561:
  1987     03B0  2BF8               	goto	l3259
  1988     03B1                     u5560:
  1989     03B1                     l3257:
  1990                           
  1991                           ;C:\Program Files\Microchip\xc8\v2.40\pic\sources\c90\common\doprnt.c: 1139:       fval 
      +                          += fround((unsigned int)prec);
  1992     03B1  1683               	bsf	3,5	;RP0=1, select bank1
  1993     03B2  1303               	bcf	3,6	;RP1=0, select bank1
  1994     03B3  083C               	movf	sprintf@prec^(0+128),w
  1995     03B4  160A  118A  239D  120A  118A  	fcall	_fround
  1996     03B9  1283               	bcf	3,5	;RP0=0, select bank0
  1997     03BA  1303               	bcf	3,6	;RP1=0, select bank0
  1998     03BB  0841               	movf	?_fround+3,w
  1999     03BC  00D5               	movwf	___fladd@b+3
  2000     03BD  0840               	movf	?_fround+2,w
  2001     03BE  00D4               	movwf	___fladd@b+2
  2002     03BF  083F               	movf	?_fround+1,w
  2003     03C0  00D3               	movwf	___fladd@b+1
  2004     03C1  083E               	movf	?_fround,w
  2005     03C2  00D2               	movwf	___fladd@b
  2006     03C3  1683               	bsf	3,5	;RP0=1, select bank1
  2007     03C4  1303               	bcf	3,6	;RP1=0, select bank1
  2008     03C5  0841               	movf	(sprintf@fval+3)^(0+128),w
  2009     03C6  1283               	bcf	3,5	;RP0=0, select bank0
  2010     03C7  1303               	bcf	3,6	;RP1=0, select bank0
  2011     03C8  00D9               	movwf	___fladd@a+3
  2012     03C9  1683               	bsf	3,5	;RP0=1, select bank1
  2013     03CA  1303               	bcf	3,6	;RP1=0, select bank1
  2014     03CB  0840               	movf	(sprintf@fval+2)^(0+128),w
  2015     03CC  1283               	bcf	3,5	;RP0=0, select bank0
  2016     03CD  1303               	bcf	3,6	;RP1=0, select bank0
  2017     03CE  00D8               	movwf	___fladd@a+2
  2018     03CF  1683               	bsf	3,5	;RP0=1, select bank1
  2019     03D0  1303               	bcf	3,6	;RP1=0, select bank1
  2020     03D1  083F               	movf	(sprintf@fval+1)^(0+128),w
  2021     03D2  1283               	bcf	3,5	;RP0=0, select bank0
  2022     03D3  1303               	bcf	3,6	;RP1=0, select bank0
  2023     03D4  00D7               	movwf	___fladd@a+1
  2024     03D5  1683               	bsf	3,5	;RP0=1, select bank1
  2025     03D6  1303               	bcf	3,6	;RP1=0, select bank1
  2026     03D7  083E               	movf	sprintf@fval^(0+128),w
  2027     03D8  1283               	bcf	3,5	;RP0=0, select bank0
  2028     03D9  1303               	bcf	3,6	;RP1=0, select bank0
  2029     03DA  00D6               	movwf	___fladd@a
  2030     03DB  160A  118A  25A8  120A  118A  	fcall	___fladd
  2031     03E0  1283               	bcf	3,5	;RP0=0, select bank0
  2032     03E1  1303               	bcf	3,6	;RP1=0, select bank0
  2033     03E2  0855               	movf	?___fladd+3,w
  2034     03E3  1683               	bsf	3,5	;RP0=1, select bank1
  2035     03E4  1303               	bcf	3,6	;RP1=0, select bank1
  2036     03E5  00C1               	movwf	(sprintf@fval+3)^(0+128)
  2037     03E6  1283               	bcf	3,5	;RP0=0, select bank0
  2038     03E7  1303               	bcf	3,6	;RP1=0, select bank0
  2039     03E8  0854               	movf	?___fladd+2,w
  2040     03E9  1683               	bsf	3,5	;RP0=1, select bank1
  2041     03EA  1303               	bcf	3,6	;RP1=0, select bank1
  2042     03EB  00C0               	movwf	(sprintf@fval+2)^(0+128)
  2043     03EC  1283               	bcf	3,5	;RP0=0, select bank0
  2044     03ED  1303               	bcf	3,6	;RP1=0, select bank0
  2045     03EE  0853               	movf	?___fladd+1,w
  2046     03EF  1683               	bsf	3,5	;RP0=1, select bank1
  2047     03F0  1303               	bcf	3,6	;RP1=0, select bank1
  2048     03F1  00BF               	movwf	(sprintf@fval+1)^(0+128)
  2049     03F2  1283               	bcf	3,5	;RP0=0, select bank0
  2050     03F3  1303               	bcf	3,6	;RP1=0, select bank0
  2051     03F4  0852               	movf	?___fladd,w
  2052     03F5  1683               	bsf	3,5	;RP0=1, select bank1
  2053     03F6  1303               	bcf	3,6	;RP1=0, select bank1
  2054     03F7  00BE               	movwf	sprintf@fval^(0+128)
  2055     03F8                     l3259:
  2056                           
  2057                           ;C:\Program Files\Microchip\xc8\v2.40\pic\sources\c90\common\doprnt.c: 1142:     if((eex
      +                          p > 9)||(fval != 0 && (unsigned long)fval == 0 && eexp > 1)) {
  2058     03F8  1683               	bsf	3,5	;RP0=1, select bank1
  2059     03F9  1303               	bcf	3,6	;RP1=0, select bank1
  2060     03FA  0836               	movf	(sprintf@eexp+1)^(0+128),w
  2061     03FB  3A80               	xorlw	128
  2062     03FC  00FF               	movwf	btemp+1
  2063     03FD  3080               	movlw	128
  2064     03FE  027F               	subwf	btemp+1,w
  2065     03FF  1D03               	skipz
  2066     0400  2C03               	goto	u5575
  2067     0401  300A               	movlw	10
  2068     0402  0235               	subwf	sprintf@eexp^(0+128),w
  2069     0403                     u5575:
  2070     0403  1803               	skipnc
  2071     0404  2C06               	goto	u5571
  2072     0405  2C07               	goto	u5570
  2073     0406                     u5571:
  2074     0406  2C58               	goto	l3267
  2075     0407                     u5570:
  2076     0407                     l3261:
  2077     0407  1683               	bsf	3,5	;RP0=1, select bank1
  2078     0408  1303               	bcf	3,6	;RP1=0, select bank1
  2079     0409  0841               	movf	(sprintf@fval+3)^(0+128),w
  2080     040A  00F3               	movwf	___fleq@ff1+3
  2081     040B  0840               	movf	(sprintf@fval+2)^(0+128),w
  2082     040C  00F2               	movwf	___fleq@ff1+2
  2083     040D  083F               	movf	(sprintf@fval+1)^(0+128),w
  2084     040E  00F1               	movwf	___fleq@ff1+1
  2085     040F  083E               	movf	sprintf@fval^(0+128),w
  2086     0410  00F0               	movwf	___fleq@ff1
  2087     0411  3000               	movlw	0
  2088     0412  00F7               	movwf	___fleq@ff2+3
  2089     0413  3000               	movlw	0
  2090     0414  00F6               	movwf	___fleq@ff2+2
  2091     0415  3000               	movlw	0
  2092     0416  00F5               	movwf	___fleq@ff2+1
  2093     0417  3000               	movlw	0
  2094     0418  00F4               	movwf	___fleq@ff2
  2095     0419  160A  158A  25C8  120A  118A  	fcall	___fleq
  2096     041E  1803               	btfsc	3,0
  2097     041F  2C21               	goto	u5581
  2098     0420  2C22               	goto	u5580
  2099     0421                     u5581:
  2100     0421  2CCA               	goto	l3281
  2101     0422                     u5580:
  2102     0422                     l3263:
  2103     0422  1683               	bsf	3,5	;RP0=1, select bank1
  2104     0423  1303               	bcf	3,6	;RP1=0, select bank1
  2105     0424  0841               	movf	(sprintf@fval+3)^(0+128),w
  2106     0425  1283               	bcf	3,5	;RP0=0, select bank0
  2107     0426  1303               	bcf	3,6	;RP1=0, select bank0
  2108     0427  00D4               	movwf	___fltol@f1+3
  2109     0428  1683               	bsf	3,5	;RP0=1, select bank1
  2110     0429  1303               	bcf	3,6	;RP1=0, select bank1
  2111     042A  0840               	movf	(sprintf@fval+2)^(0+128),w
  2112     042B  1283               	bcf	3,5	;RP0=0, select bank0
  2113     042C  1303               	bcf	3,6	;RP1=0, select bank0
  2114     042D  00D3               	movwf	___fltol@f1+2
  2115     042E  1683               	bsf	3,5	;RP0=1, select bank1
  2116     042F  1303               	bcf	3,6	;RP1=0, select bank1
  2117     0430  083F               	movf	(sprintf@fval+1)^(0+128),w
  2118     0431  1283               	bcf	3,5	;RP0=0, select bank0
  2119     0432  1303               	bcf	3,6	;RP1=0, select bank0
  2120     0433  00D2               	movwf	___fltol@f1+1
  2121     0434  1683               	bsf	3,5	;RP0=1, select bank1
  2122     0435  1303               	bcf	3,6	;RP1=0, select bank1
  2123     0436  083E               	movf	sprintf@fval^(0+128),w
  2124     0437  1283               	bcf	3,5	;RP0=0, select bank0
  2125     0438  1303               	bcf	3,6	;RP1=0, select bank0
  2126     0439  00D1               	movwf	___fltol@f1
  2127     043A  160A  118A  20D5  120A  118A  	fcall	___fltol
  2128     043F  1283               	bcf	3,5	;RP0=0, select bank0
  2129     0440  1303               	bcf	3,6	;RP1=0, select bank0
  2130     0441  0854               	movf	?___fltol+3,w
  2131     0442  0453               	iorwf	?___fltol+2,w
  2132     0443  0452               	iorwf	?___fltol+1,w
  2133     0444  0451               	iorwf	?___fltol,w
  2134     0445  1D03               	skipz
  2135     0446  2C48               	goto	u5591
  2136     0447  2C49               	goto	u5590
  2137     0448                     u5591:
  2138     0448  2CCA               	goto	l3281
  2139     0449                     u5590:
  2140     0449                     l3265:
  2141     0449  1683               	bsf	3,5	;RP0=1, select bank1
  2142     044A  1303               	bcf	3,6	;RP1=0, select bank1
  2143     044B  0836               	movf	(sprintf@eexp+1)^(0+128),w
  2144     044C  3A80               	xorlw	128
  2145     044D  00FF               	movwf	btemp+1
  2146     044E  3080               	movlw	128
  2147     044F  027F               	subwf	btemp+1,w
  2148     0450  1D03               	skipz
  2149     0451  2C54               	goto	u5605
  2150     0452  3002               	movlw	2
  2151     0453  0235               	subwf	sprintf@eexp^(0+128),w
  2152     0454                     u5605:
  2153     0454  1C03               	skipc
  2154     0455  2C57               	goto	u5601
  2155     0456  2C58               	goto	u5600
  2156     0457                     u5601:
  2157     0457  2CCA               	goto	l3281
  2158     0458                     u5600:
  2159     0458                     l3267:
  2160                           
  2161                           ;C:\Program Files\Microchip\xc8\v2.40\pic\sources\c90\common\doprnt.c: 1146:      if(tmp
      +                          val.integ < 4.294967296){
  2162     0458  1683               	bsf	3,5	;RP0=1, select bank1
  2163     0459  1303               	bcf	3,6	;RP1=0, select bank1
  2164     045A  083A               	movf	(sprintf@tmpval+3)^(0+128),w
  2165     045B  00F3               	movwf	___flge@ff1+3
  2166     045C  0839               	movf	(sprintf@tmpval+2)^(0+128),w
  2167     045D  00F2               	movwf	___flge@ff1+2
  2168     045E  0838               	movf	(sprintf@tmpval+1)^(0+128),w
  2169     045F  00F1               	movwf	___flge@ff1+1
  2170     0460  0837               	movf	sprintf@tmpval^(0+128),w
  2171     0461  00F0               	movwf	___flge@ff1
  2172     0462  3040               	movlw	64
  2173     0463  00F7               	movwf	___flge@ff2+3
  2174     0464  3089               	movlw	137
  2175     0465  00F6               	movwf	___flge@ff2+2
  2176     0466  3070               	movlw	112
  2177     0467  00F5               	movwf	___flge@ff2+1
  2178     0468  305F               	movlw	95
  2179     0469  00F4               	movwf	___flge@ff2
  2180     046A  120A  158A  2003  120A  118A  	fcall	___flge
  2181     046F  1803               	btfsc	3,0
  2182     0470  2C72               	goto	u5611
  2183     0471  2C73               	goto	u5610
  2184     0472                     u5611:
  2185     0472  2C7C               	goto	l3271
  2186     0473                     u5610:
  2187     0473                     l3269:
  2188                           
  2189                           ;C:\Program Files\Microchip\xc8\v2.40\pic\sources\c90\common\doprnt.c: 1147:       eexp 
      +                          -= (sizeof dpowers/sizeof dpowers[0])-1;
  2190     0473  30F7               	movlw	247
  2191     0474  1683               	bsf	3,5	;RP0=1, select bank1
  2192     0475  1303               	bcf	3,6	;RP1=0, select bank1
  2193     0476  07B5               	addwf	sprintf@eexp^(0+128),f
  2194     0477  1803               	skipnc
  2195     0478  0AB6               	incf	(sprintf@eexp+1)^(0+128),f
  2196     0479  30FF               	movlw	255
  2197     047A  07B6               	addwf	(sprintf@eexp+1)^(0+128),f
  2198                           
  2199                           ;C:\Program Files\Microchip\xc8\v2.40\pic\sources\c90\common\doprnt.c: 1148:      }else{
  2200     047B  2C84               	goto	l3273
  2201     047C                     l3271:
  2202                           
  2203                           ;C:\Program Files\Microchip\xc8\v2.40\pic\sources\c90\common\doprnt.c: 1149:       eexp 
      +                          -= (sizeof dpowers/sizeof dpowers[0])-2;
  2204     047C  30F8               	movlw	248
  2205     047D  1683               	bsf	3,5	;RP0=1, select bank1
  2206     047E  1303               	bcf	3,6	;RP1=0, select bank1
  2207     047F  07B5               	addwf	sprintf@eexp^(0+128),f
  2208     0480  1803               	skipnc
  2209     0481  0AB6               	incf	(sprintf@eexp+1)^(0+128),f
  2210     0482  30FF               	movlw	255
  2211     0483  07B6               	addwf	(sprintf@eexp+1)^(0+128),f
  2212     0484                     l3273:
  2213                           
  2214                           ;C:\Program Files\Microchip\xc8\v2.40\pic\sources\c90\common\doprnt.c: 1152:      val = 
      +                          ((sizeof(double)== 3) ? _tdiv_to_l_(fval,tmpval.integ) : _div_to_l_(fval,tmpval.integ));
  2215     0484  0835               	movf	sprintf@eexp^(0+128),w
  2216     0485  120A  158A  24A1  120A  118A  	fcall	_scale
  2217     048A  1283               	bcf	3,5	;RP0=0, select bank0
  2218     048B  1303               	bcf	3,6	;RP1=0, select bank0
  2219     048C  0841               	movf	?_scale+3,w
  2220     048D  1683               	bsf	3,5	;RP0=1, select bank1
  2221     048E  1303               	bcf	3,6	;RP1=0, select bank1
  2222     048F  00BA               	movwf	(sprintf@tmpval+3)^(0+128)
  2223     0490  1283               	bcf	3,5	;RP0=0, select bank0
  2224     0491  1303               	bcf	3,6	;RP1=0, select bank0
  2225     0492  0840               	movf	?_scale+2,w
  2226     0493  1683               	bsf	3,5	;RP0=1, select bank1
  2227     0494  1303               	bcf	3,6	;RP1=0, select bank1
  2228     0495  00B9               	movwf	(sprintf@tmpval+2)^(0+128)
  2229     0496  1283               	bcf	3,5	;RP0=0, select bank0
  2230     0497  1303               	bcf	3,6	;RP1=0, select bank0
  2231     0498  083F               	movf	?_scale+1,w
  2232     0499  1683               	bsf	3,5	;RP0=1, select bank1
  2233     049A  1303               	bcf	3,6	;RP1=0, select bank1
  2234     049B  00B8               	movwf	(sprintf@tmpval+1)^(0+128)
  2235     049C  1283               	bcf	3,5	;RP0=0, select bank0
  2236     049D  1303               	bcf	3,6	;RP1=0, select bank0
  2237     049E  083E               	movf	?_scale,w
  2238     049F  1683               	bsf	3,5	;RP0=1, select bank1
  2239     04A0  1303               	bcf	3,6	;RP1=0, select bank1
  2240     04A1  00B7               	movwf	sprintf@tmpval^(0+128)
  2241     04A2                     l3275:
  2242     04A2  0841               	movf	(sprintf@fval+3)^(0+128),w
  2243     04A3  00F3               	movwf	__div_to_l_@f1+3
  2244     04A4  0840               	movf	(sprintf@fval+2)^(0+128),w
  2245     04A5  00F2               	movwf	__div_to_l_@f1+2
  2246     04A6  083F               	movf	(sprintf@fval+1)^(0+128),w
  2247     04A7  00F1               	movwf	__div_to_l_@f1+1
  2248     04A8  083E               	movf	sprintf@fval^(0+128),w
  2249     04A9  00F0               	movwf	__div_to_l_@f1
  2250     04AA  083A               	movf	(sprintf@tmpval+3)^(0+128),w
  2251     04AB  00F7               	movwf	__div_to_l_@f2+3
  2252     04AC  0839               	movf	(sprintf@tmpval+2)^(0+128),w
  2253     04AD  00F6               	movwf	__div_to_l_@f2+2
  2254     04AE  0838               	movf	(sprintf@tmpval+1)^(0+128),w
  2255     04AF  00F5               	movwf	__div_to_l_@f2+1
  2256     04B0  0837               	movf	sprintf@tmpval^(0+128),w
  2257     04B1  00F4               	movwf	__div_to_l_@f2
  2258     04B2  120A  118A  20F6  120A  118A  	fcall	__div_to_l_
  2259     04B7  0873               	movf	?__div_to_l_+3,w
  2260     04B8  1683               	bsf	3,5	;RP0=1, select bank1
  2261     04B9  1303               	bcf	3,6	;RP1=0, select bank1
  2262     04BA  00B4               	movwf	(sprintf@val+3)^(0+128)
  2263     04BB  0872               	movf	?__div_to_l_+2,w
  2264     04BC  00B3               	movwf	(sprintf@val+2)^(0+128)
  2265     04BD  0871               	movf	?__div_to_l_+1,w
  2266     04BE  00B2               	movwf	(sprintf@val+1)^(0+128)
  2267     04BF  0870               	movf	?__div_to_l_,w
  2268     04C0  00B1               	movwf	sprintf@val^(0+128)
  2269     04C1                     l3279:
  2270                           
  2271                           ;C:\Program Files\Microchip\xc8\v2.40\pic\sources\c90\common\doprnt.c: 1155:      fval =
      +                           0.0;
  2272     04C1  3000               	movlw	0
  2273     04C2  00C1               	movwf	(sprintf@fval+3)^(0+128)
  2274     04C3  3000               	movlw	0
  2275     04C4  00C0               	movwf	(sprintf@fval+2)^(0+128)
  2276     04C5  3000               	movlw	0
  2277     04C6  00BF               	movwf	(sprintf@fval+1)^(0+128)
  2278     04C7  3000               	movlw	0
  2279     04C8  00BE               	movwf	sprintf@fval^(0+128)
  2280                           
  2281                           ;C:\Program Files\Microchip\xc8\v2.40\pic\sources\c90\common\doprnt.c: 1156:     } else 
      +                          {
  2282     04C9  2D4E               	goto	l3287
  2283     04CA                     l3281:
  2284                           
  2285                           ;C:\Program Files\Microchip\xc8\v2.40\pic\sources\c90\common\doprnt.c: 1157:      val = 
      +                          (unsigned long)fval;
  2286     04CA  1683               	bsf	3,5	;RP0=1, select bank1
  2287     04CB  1303               	bcf	3,6	;RP1=0, select bank1
  2288     04CC  0841               	movf	(sprintf@fval+3)^(0+128),w
  2289     04CD  1283               	bcf	3,5	;RP0=0, select bank0
  2290     04CE  1303               	bcf	3,6	;RP1=0, select bank0
  2291     04CF  00D4               	movwf	___fltol@f1+3
  2292     04D0  1683               	bsf	3,5	;RP0=1, select bank1
  2293     04D1  1303               	bcf	3,6	;RP1=0, select bank1
  2294     04D2  0840               	movf	(sprintf@fval+2)^(0+128),w
  2295     04D3  1283               	bcf	3,5	;RP0=0, select bank0
  2296     04D4  1303               	bcf	3,6	;RP1=0, select bank0
  2297     04D5  00D3               	movwf	___fltol@f1+2
  2298     04D6  1683               	bsf	3,5	;RP0=1, select bank1
  2299     04D7  1303               	bcf	3,6	;RP1=0, select bank1
  2300     04D8  083F               	movf	(sprintf@fval+1)^(0+128),w
  2301     04D9  1283               	bcf	3,5	;RP0=0, select bank0
  2302     04DA  1303               	bcf	3,6	;RP1=0, select bank0
  2303     04DB  00D2               	movwf	___fltol@f1+1
  2304     04DC  1683               	bsf	3,5	;RP0=1, select bank1
  2305     04DD  1303               	bcf	3,6	;RP1=0, select bank1
  2306     04DE  083E               	movf	sprintf@fval^(0+128),w
  2307     04DF  1283               	bcf	3,5	;RP0=0, select bank0
  2308     04E0  1303               	bcf	3,6	;RP1=0, select bank0
  2309     04E1  00D1               	movwf	___fltol@f1
  2310     04E2  160A  118A  20D5  120A  118A  	fcall	___fltol
  2311     04E7  1283               	bcf	3,5	;RP0=0, select bank0
  2312     04E8  1303               	bcf	3,6	;RP1=0, select bank0
  2313     04E9  0854               	movf	?___fltol+3,w
  2314     04EA  1683               	bsf	3,5	;RP0=1, select bank1
  2315     04EB  1303               	bcf	3,6	;RP1=0, select bank1
  2316     04EC  00B4               	movwf	(sprintf@val+3)^(0+128)
  2317     04ED  1283               	bcf	3,5	;RP0=0, select bank0
  2318     04EE  1303               	bcf	3,6	;RP1=0, select bank0
  2319     04EF  0853               	movf	?___fltol+2,w
  2320     04F0  1683               	bsf	3,5	;RP0=1, select bank1
  2321     04F1  1303               	bcf	3,6	;RP1=0, select bank1
  2322     04F2  00B3               	movwf	(sprintf@val+2)^(0+128)
  2323     04F3  1283               	bcf	3,5	;RP0=0, select bank0
  2324     04F4  1303               	bcf	3,6	;RP1=0, select bank0
  2325     04F5  0852               	movf	?___fltol+1,w
  2326     04F6  1683               	bsf	3,5	;RP0=1, select bank1
  2327     04F7  1303               	bcf	3,6	;RP1=0, select bank1
  2328     04F8  00B2               	movwf	(sprintf@val+1)^(0+128)
  2329     04F9  1283               	bcf	3,5	;RP0=0, select bank0
  2330     04FA  1303               	bcf	3,6	;RP1=0, select bank0
  2331     04FB  0851               	movf	?___fltol,w
  2332     04FC  1683               	bsf	3,5	;RP0=1, select bank1
  2333     04FD  1303               	bcf	3,6	;RP1=0, select bank1
  2334     04FE  00B1               	movwf	sprintf@val^(0+128)
  2335     04FF                     l3283:
  2336                           
  2337                           ;C:\Program Files\Microchip\xc8\v2.40\pic\sources\c90\common\doprnt.c: 1158:      fval -
      +                          = (double)val;
  2338     04FF  0834               	movf	(sprintf@val+3)^(0+128),w
  2339     0500  00F3               	movwf	___xxtofl@val+3
  2340     0501  0833               	movf	(sprintf@val+2)^(0+128),w
  2341     0502  00F2               	movwf	___xxtofl@val+2
  2342     0503  0832               	movf	(sprintf@val+1)^(0+128),w
  2343     0504  00F1               	movwf	___xxtofl@val+1
  2344     0505  0831               	movf	sprintf@val^(0+128),w
  2345     0506  00F0               	movwf	___xxtofl@val
  2346     0507  3000               	movlw	0
  2347     0508  120A  118A  203E  120A  118A  	fcall	___xxtofl
  2348     050D  0873               	movf	?___xxtofl+3,w
  2349     050E  1283               	bcf	3,5	;RP0=0, select bank0
  2350     050F  1303               	bcf	3,6	;RP1=0, select bank0
  2351     0510  00E9               	movwf	___flsub@a+3
  2352     0511  0872               	movf	?___xxtofl+2,w
  2353     0512  00E8               	movwf	___flsub@a+2
  2354     0513  0871               	movf	?___xxtofl+1,w
  2355     0514  00E7               	movwf	___flsub@a+1
  2356     0515  0870               	movf	?___xxtofl,w
  2357     0516  00E6               	movwf	___flsub@a
  2358     0517  1683               	bsf	3,5	;RP0=1, select bank1
  2359     0518  1303               	bcf	3,6	;RP1=0, select bank1
  2360     0519  0841               	movf	(sprintf@fval+3)^(0+128),w
  2361     051A  1283               	bcf	3,5	;RP0=0, select bank0
  2362     051B  1303               	bcf	3,6	;RP1=0, select bank0
  2363     051C  00ED               	movwf	___flsub@b+3
  2364     051D  1683               	bsf	3,5	;RP0=1, select bank1
  2365     051E  1303               	bcf	3,6	;RP1=0, select bank1
  2366     051F  0840               	movf	(sprintf@fval+2)^(0+128),w
  2367     0520  1283               	bcf	3,5	;RP0=0, select bank0
  2368     0521  1303               	bcf	3,6	;RP1=0, select bank0
  2369     0522  00EC               	movwf	___flsub@b+2
  2370     0523  1683               	bsf	3,5	;RP0=1, select bank1
  2371     0524  1303               	bcf	3,6	;RP1=0, select bank1
  2372     0525  083F               	movf	(sprintf@fval+1)^(0+128),w
  2373     0526  1283               	bcf	3,5	;RP0=0, select bank0
  2374     0527  1303               	bcf	3,6	;RP1=0, select bank0
  2375     0528  00EB               	movwf	___flsub@b+1
  2376     0529  1683               	bsf	3,5	;RP0=1, select bank1
  2377     052A  1303               	bcf	3,6	;RP1=0, select bank1
  2378     052B  083E               	movf	sprintf@fval^(0+128),w
  2379     052C  1283               	bcf	3,5	;RP0=0, select bank0
  2380     052D  1303               	bcf	3,6	;RP1=0, select bank0
  2381     052E  00EA               	movwf	___flsub@b
  2382     052F  160A  158A  253B  120A  118A  	fcall	___flsub
  2383     0534  1283               	bcf	3,5	;RP0=0, select bank0
  2384     0535  1303               	bcf	3,6	;RP1=0, select bank0
  2385     0536  0869               	movf	?___flsub+3,w
  2386     0537  1683               	bsf	3,5	;RP0=1, select bank1
  2387     0538  1303               	bcf	3,6	;RP1=0, select bank1
  2388     0539  00C1               	movwf	(sprintf@fval+3)^(0+128)
  2389     053A  1283               	bcf	3,5	;RP0=0, select bank0
  2390     053B  1303               	bcf	3,6	;RP1=0, select bank0
  2391     053C  0868               	movf	?___flsub+2,w
  2392     053D  1683               	bsf	3,5	;RP0=1, select bank1
  2393     053E  1303               	bcf	3,6	;RP1=0, select bank1
  2394     053F  00C0               	movwf	(sprintf@fval+2)^(0+128)
  2395     0540  1283               	bcf	3,5	;RP0=0, select bank0
  2396     0541  1303               	bcf	3,6	;RP1=0, select bank0
  2397     0542  0867               	movf	?___flsub+1,w
  2398     0543  1683               	bsf	3,5	;RP0=1, select bank1
  2399     0544  1303               	bcf	3,6	;RP1=0, select bank1
  2400     0545  00BF               	movwf	(sprintf@fval+1)^(0+128)
  2401     0546  1283               	bcf	3,5	;RP0=0, select bank0
  2402     0547  1303               	bcf	3,6	;RP1=0, select bank0
  2403     0548  0866               	movf	?___flsub,w
  2404     0549  1683               	bsf	3,5	;RP0=1, select bank1
  2405     054A  1303               	bcf	3,6	;RP1=0, select bank1
  2406     054B  00BE               	movwf	sprintf@fval^(0+128)
  2407     054C                     l3285:
  2408                           
  2409                           ;C:\Program Files\Microchip\xc8\v2.40\pic\sources\c90\common\doprnt.c: 1159:      eexp =
      +                           0;
  2410     054C  01B5               	clrf	sprintf@eexp^(0+128)
  2411     054D  01B6               	clrf	(sprintf@eexp+1)^(0+128)
  2412     054E                     l3287:
  2413                           
  2414                           ;C:\Program Files\Microchip\xc8\v2.40\pic\sources\c90\common\doprnt.c: 1162:     for(c =
      +                           1 ; c != (sizeof dpowers/sizeof dpowers[0]) ; c++)
  2415     054E  01C2               	clrf	sprintf@c^(0+128)
  2416     054F  0AC2               	incf	sprintf@c^(0+128),f
  2417     0550                     l3293:
  2418                           
  2419                           ;C:\Program Files\Microchip\xc8\v2.40\pic\sources\c90\common\doprnt.c: 1163:      if(val
      +                           < dpowers[c])
  2420     0550  0842               	movf	sprintf@c^(0+128),w
  2421     0551  00A5               	movwf	??_sprintf^(0+128)
  2422     0552  3001               	movlw	1
  2423     0553                     u5625:
  2424     0553  1003               	clrc
  2425     0554  0DA5               	rlf	??_sprintf^(0+128),f
  2426     0555  3EFF               	addlw	-1
  2427     0556  1D03               	skipz
  2428     0557  2D53               	goto	u5625
  2429     0558  1003               	clrc
  2430     0559  0D25               	rlf	??_sprintf^(0+128),w
  2431     055A  3E69               	addlw	low ((_dpowers-__stringbase)| (0+32768))
  2432     055B  0084               	movwf	4
  2433     055C  160A  118A  2000  120A  118A  	fcall	stringdir
  2434     0561  00A6               	movwf	(??_sprintf+1)^(0+128)
  2435     0562  160A  118A  2000  120A  118A  	fcall	stringdir
  2436     0567  00A7               	movwf	((??_sprintf+1)^(0+128)+1)
  2437     0568  160A  118A  2000  120A  118A  	fcall	stringdir
  2438     056D  00A8               	movwf	((??_sprintf+1)^(0+128)+2)
  2439     056E  160A  118A  2000  120A  118A  	fcall	stringdir
  2440     0573  00A9               	movwf	((??_sprintf+1)^(0+128)+3)
  2441     0574  0829               	movf	(??_sprintf+4)^(0+128),w
  2442     0575  0234               	subwf	(sprintf@val+3)^(0+128),w
  2443     0576  1D03               	skipz
  2444     0577  2D82               	goto	u5635
  2445     0578  0828               	movf	(??_sprintf+3)^(0+128),w
  2446     0579  0233               	subwf	(sprintf@val+2)^(0+128),w
  2447     057A  1D03               	skipz
  2448     057B  2D82               	goto	u5635
  2449     057C  0827               	movf	(??_sprintf+2)^(0+128),w
  2450     057D  0232               	subwf	(sprintf@val+1)^(0+128),w
  2451     057E  1D03               	skipz
  2452     057F  2D82               	goto	u5635
  2453     0580  0826               	movf	(??_sprintf+1)^(0+128),w
  2454     0581  0231               	subwf	sprintf@val^(0+128),w
  2455     0582                     u5635:
  2456     0582  1803               	skipnc
  2457     0583  2D85               	goto	u5631
  2458     0584  2D86               	goto	u5630
  2459     0585                     u5631:
  2460     0585  2D87               	goto	l3297
  2461     0586                     u5630:
  2462     0586  2D91               	goto	l3299
  2463     0587                     l3297:
  2464     0587  3001               	movlw	1
  2465     0588  00A5               	movwf	??_sprintf^(0+128)
  2466     0589  0825               	movf	??_sprintf^(0+128),w
  2467     058A  07C2               	addwf	sprintf@c^(0+128),f
  2468     058B  300A               	movlw	10
  2469     058C  0642               	xorwf	sprintf@c^(0+128),w
  2470     058D  1D03               	btfss	3,2
  2471     058E  2D90               	goto	u5641
  2472     058F  2D91               	goto	u5640
  2473     0590                     u5641:
  2474     0590  2D50               	goto	l3293
  2475     0591                     u5640:
  2476     0591                     l3299:
  2477                           
  2478                           ;C:\Program Files\Microchip\xc8\v2.40\pic\sources\c90\common\doprnt.c: 1201:     {;C:\Pr
      +                          ogram Files\Microchip\xc8\v2.40\pic\sources\c90\common\doprnt.c: 1214:     if(flag & 0x0
      +                          3)
  2479     0591  3003               	movlw	3
  2480     0592  052F               	andwf	sprintf@flag^(0+128),w
  2481     0593  00A5               	movwf	??_sprintf^(0+128)
  2482     0594  3000               	movlw	0
  2483     0595  0530               	andwf	(sprintf@flag+1)^(0+128),w
  2484     0596  00A6               	movwf	(??_sprintf+1)^(0+128)
  2485     0597  0825               	movf	??_sprintf^(0+128),w
  2486     0598  0426               	iorwf	(??_sprintf^(0+128)+1),w
  2487     0599  1903               	btfsc	3,2
  2488     059A  2D9C               	goto	u5651
  2489     059B  2D9D               	goto	u5650
  2490     059C                     u5651:
  2491     059C  2E0B               	goto	l249
  2492     059D                     u5650:
  2493     059D                     l3301:
  2494                           
  2495                           ;C:\Program Files\Microchip\xc8\v2.40\pic\sources\c90\common\doprnt.c: 1216:      ((*sp+
      +                          + = ('-')));
  2496     059D  083B               	movf	sprintf@sp^(0+128),w
  2497     059E  0084               	movwf	4
  2498     059F  302D               	movlw	45
  2499     05A0  1383               	bcf	3,7	;select IRP bank0
  2500     05A1  0080               	movwf	0
  2501     05A2                     l3303:
  2502     05A2  3001               	movlw	1
  2503     05A3  00A5               	movwf	??_sprintf^(0+128)
  2504     05A4  0825               	movf	??_sprintf^(0+128),w
  2505     05A5  07BB               	addwf	sprintf@sp^(0+128),f
  2506     05A6  2E0B               	goto	l249
  2507     05A7                     l3305:
  2508                           
  2509                           ;C:\Program Files\Microchip\xc8\v2.40\pic\sources\c90\common\doprnt.c: 1226:     {;C:\Pr
      +                          ogram Files\Microchip\xc8\v2.40\pic\sources\c90\common\doprnt.c: 1227:      tmpval.vd = 
      +                          val/dpowers[c];
  2510     05A7  0842               	movf	sprintf@c^(0+128),w
  2511     05A8  00A5               	movwf	??_sprintf^(0+128)
  2512     05A9  3001               	movlw	1
  2513     05AA                     u5665:
  2514     05AA  1003               	clrc
  2515     05AB  0DA5               	rlf	??_sprintf^(0+128),f
  2516     05AC  3EFF               	addlw	-1
  2517     05AD  1D03               	skipz
  2518     05AE  2DAA               	goto	u5665
  2519     05AF  1003               	clrc
  2520     05B0  0D25               	rlf	??_sprintf^(0+128),w
  2521     05B1  3E69               	addlw	low ((_dpowers-__stringbase)| (0+32768))
  2522     05B2  0084               	movwf	4
  2523     05B3  160A  118A  2000  120A  118A  	fcall	stringdir
  2524     05B8  00F0               	movwf	___lldiv@divisor
  2525     05B9  160A  118A  2000  120A  118A  	fcall	stringdir
  2526     05BE  00F1               	movwf	___lldiv@divisor+1
  2527     05BF  160A  118A  2000  120A  118A  	fcall	stringdir
  2528     05C4  00F2               	movwf	___lldiv@divisor+2
  2529     05C5  160A  118A  2000  120A  118A  	fcall	stringdir
  2530     05CA  00F3               	movwf	___lldiv@divisor+3
  2531     05CB  0834               	movf	(sprintf@val+3)^(0+128),w
  2532     05CC  00F7               	movwf	___lldiv@dividend+3
  2533     05CD  0833               	movf	(sprintf@val+2)^(0+128),w
  2534     05CE  00F6               	movwf	___lldiv@dividend+2
  2535     05CF  0832               	movf	(sprintf@val+1)^(0+128),w
  2536     05D0  00F5               	movwf	___lldiv@dividend+1
  2537     05D1  0831               	movf	sprintf@val^(0+128),w
  2538     05D2  00F4               	movwf	___lldiv@dividend
  2539     05D3  160A  158A  26C3  120A  118A  	fcall	___lldiv
  2540     05D8  0873               	movf	?___lldiv+3,w
  2541     05D9  1683               	bsf	3,5	;RP0=1, select bank1
  2542     05DA  1303               	bcf	3,6	;RP1=0, select bank1
  2543     05DB  00BA               	movwf	(sprintf@tmpval+3)^(0+128)
  2544     05DC  0872               	movf	?___lldiv+2,w
  2545     05DD  00B9               	movwf	(sprintf@tmpval+2)^(0+128)
  2546     05DE  0871               	movf	?___lldiv+1,w
  2547     05DF  00B8               	movwf	(sprintf@tmpval+1)^(0+128)
  2548     05E0  0870               	movf	?___lldiv,w
  2549     05E1  00B7               	movwf	sprintf@tmpval^(0+128)
  2550     05E2                     l3307:
  2551                           
  2552                           ;C:\Program Files\Microchip\xc8\v2.40\pic\sources\c90\common\doprnt.c: 1228:      tmpval
      +                          .vd %= 10;
  2553     05E2  3000               	movlw	0
  2554     05E3  00F3               	movwf	___llmod@divisor+3
  2555     05E4  3000               	movlw	0
  2556     05E5  00F2               	movwf	___llmod@divisor+2
  2557     05E6  3000               	movlw	0
  2558     05E7  00F1               	movwf	___llmod@divisor+1
  2559     05E8  300A               	movlw	10
  2560     05E9  00F0               	movwf	___llmod@divisor
  2561     05EA  083A               	movf	(sprintf@tmpval+3)^(0+128),w
  2562     05EB  00F7               	movwf	___llmod@dividend+3
  2563     05EC  0839               	movf	(sprintf@tmpval+2)^(0+128),w
  2564     05ED  00F6               	movwf	___llmod@dividend+2
  2565     05EE  0838               	movf	(sprintf@tmpval+1)^(0+128),w
  2566     05EF  00F5               	movwf	___llmod@dividend+1
  2567     05F0  0837               	movf	sprintf@tmpval^(0+128),w
  2568     05F1  00F4               	movwf	___llmod@dividend
  2569     05F2  160A  158A  2616  120A  118A  	fcall	___llmod
  2570     05F7  0873               	movf	?___llmod+3,w
  2571     05F8  1683               	bsf	3,5	;RP0=1, select bank1
  2572     05F9  1303               	bcf	3,6	;RP1=0, select bank1
  2573     05FA  00BA               	movwf	(sprintf@tmpval+3)^(0+128)
  2574     05FB  0872               	movf	?___llmod+2,w
  2575     05FC  00B9               	movwf	(sprintf@tmpval+2)^(0+128)
  2576     05FD  0871               	movf	?___llmod+1,w
  2577     05FE  00B8               	movwf	(sprintf@tmpval+1)^(0+128)
  2578     05FF  0870               	movf	?___llmod,w
  2579     0600  00B7               	movwf	sprintf@tmpval^(0+128)
  2580     0601                     l3309:
  2581                           
  2582                           ;C:\Program Files\Microchip\xc8\v2.40\pic\sources\c90\common\doprnt.c: 1229:      ((*sp+
      +                          + = ('0' + tmpval.vd)));
  2583     0601  083B               	movf	sprintf@sp^(0+128),w
  2584     0602  0084               	movwf	4
  2585     0603  0837               	movf	sprintf@tmpval^(0+128),w
  2586     0604  3E30               	addlw	48
  2587     0605  1383               	bcf	3,7	;select IRP bank0
  2588     0606  0080               	movwf	0
  2589     0607  3001               	movlw	1
  2590     0608  00A5               	movwf	??_sprintf^(0+128)
  2591     0609  0825               	movf	??_sprintf^(0+128),w
  2592     060A  07BB               	addwf	sprintf@sp^(0+128),f
  2593     060B                     l249:	
  2594                           ;C:\Program Files\Microchip\xc8\v2.40\pic\sources\c90\common\doprnt.c: 1230:     };C:\Pr
      +                          ogram Files\Microchip\xc8\v2.40\pic\sources\c90\common\doprnt.c: 1232:    }
  2595                           
  2596                           
  2597                           ;C:\Program Files\Microchip\xc8\v2.40\pic\sources\c90\common\doprnt.c: 1222:    while(c-
      +                          -) {
  2598     060B  3001               	movlw	1
  2599     060C  02C2               	subwf	sprintf@c^(0+128),f
  2600     060D  0A42               	incf	sprintf@c^(0+128),w
  2601     060E  1D03               	btfss	3,2
  2602     060F  2E11               	goto	u5671
  2603     0610  2E12               	goto	u5670
  2604     0611                     u5671:
  2605     0611  2DA7               	goto	l3305
  2606     0612                     u5670:
  2607     0612  2E24               	goto	l3317
  2608     0613                     l3311:
  2609                           
  2610                           ;C:\Program Files\Microchip\xc8\v2.40\pic\sources\c90\common\doprnt.c: 1234:     ((*sp++
      +                           = ('0')));
  2611     0613  1683               	bsf	3,5	;RP0=1, select bank1
  2612     0614  1303               	bcf	3,6	;RP1=0, select bank1
  2613     0615  083B               	movf	sprintf@sp^(0+128),w
  2614     0616  0084               	movwf	4
  2615     0617  3030               	movlw	48
  2616     0618  1383               	bcf	3,7	;select IRP bank0
  2617     0619  0080               	movwf	0
  2618     061A                     l3313:
  2619     061A  3001               	movlw	1
  2620     061B  00A5               	movwf	??_sprintf^(0+128)
  2621     061C  0825               	movf	??_sprintf^(0+128),w
  2622     061D  07BB               	addwf	sprintf@sp^(0+128),f
  2623     061E                     l3315:
  2624                           
  2625                           ;C:\Program Files\Microchip\xc8\v2.40\pic\sources\c90\common\doprnt.c: 1235:     eexp--;
  2626     061E  30FF               	movlw	255
  2627     061F  07B5               	addwf	sprintf@eexp^(0+128),f
  2628     0620  1803               	skipnc
  2629     0621  0AB6               	incf	(sprintf@eexp+1)^(0+128),f
  2630     0622  30FF               	movlw	255
  2631     0623  07B6               	addwf	(sprintf@eexp+1)^(0+128),f
  2632     0624                     l3317:
  2633                           
  2634                           ;C:\Program Files\Microchip\xc8\v2.40\pic\sources\c90\common\doprnt.c: 1233:    while(ee
      +                          xp > 0) {
  2635     0624  0836               	movf	(sprintf@eexp+1)^(0+128),w
  2636     0625  3A80               	xorlw	128
  2637     0626  00FF               	movwf	btemp+1
  2638     0627  3080               	movlw	128
  2639     0628  027F               	subwf	btemp+1,w
  2640     0629  1D03               	skipz
  2641     062A  2E2D               	goto	u5685
  2642     062B  3001               	movlw	1
  2643     062C  0235               	subwf	sprintf@eexp^(0+128),w
  2644     062D                     u5685:
  2645     062D  1803               	skipnc
  2646     062E  2E30               	goto	u5681
  2647     062F  2E31               	goto	u5680
  2648     0630                     u5681:
  2649     0630  2E13               	goto	l3311
  2650     0631                     u5680:
  2651     0631                     l3319:
  2652                           
  2653                           ;C:\Program Files\Microchip\xc8\v2.40\pic\sources\c90\common\doprnt.c: 1237:    if(prec 
      +                          > (int)((sizeof dpowers/sizeof dpowers[0])-2))
  2654     0631  1683               	bsf	3,5	;RP0=1, select bank1
  2655     0632  1303               	bcf	3,6	;RP1=0, select bank1
  2656     0633  083D               	movf	(sprintf@prec+1)^(0+128),w
  2657     0634  3A80               	xorlw	128
  2658     0635  00FF               	movwf	btemp+1
  2659     0636  3080               	movlw	128
  2660     0637  027F               	subwf	btemp+1,w
  2661     0638  1D03               	skipz
  2662     0639  2E3C               	goto	u5695
  2663     063A  3009               	movlw	9
  2664     063B  023C               	subwf	sprintf@prec^(0+128),w
  2665     063C                     u5695:
  2666     063C  1C03               	skipc
  2667     063D  2E3F               	goto	u5691
  2668     063E  2E40               	goto	u5690
  2669     063F                     u5691:
  2670     063F  2E45               	goto	l3323
  2671     0640                     u5690:
  2672     0640                     l3321:
  2673                           
  2674                           ;C:\Program Files\Microchip\xc8\v2.40\pic\sources\c90\common\doprnt.c: 1238:     c = (si
      +                          zeof dpowers/sizeof dpowers[0])-2;
  2675     0640  3008               	movlw	8
  2676     0641  1683               	bsf	3,5	;RP0=1, select bank1
  2677     0642  1303               	bcf	3,6	;RP1=0, select bank1
  2678     0643  00C2               	movwf	sprintf@c^(0+128)
  2679     0644  2E49               	goto	l256
  2680     0645                     l3323:
  2681                           
  2682                           ;C:\Program Files\Microchip\xc8\v2.40\pic\sources\c90\common\doprnt.c: 1240:     c = (ch
      +                          ar)prec;
  2683     0645  1683               	bsf	3,5	;RP0=1, select bank1
  2684     0646  1303               	bcf	3,6	;RP1=0, select bank1
  2685     0647  083C               	movf	sprintf@prec^(0+128),w
  2686     0648  00C2               	movwf	sprintf@c^(0+128)
  2687     0649                     l256:
  2688                           
  2689                           ;C:\Program Files\Microchip\xc8\v2.40\pic\sources\c90\common\doprnt.c: 1241:    prec -= 
      +                          (int)c;
  2690     0649  0842               	movf	sprintf@c^(0+128),w
  2691     064A  00A5               	movwf	??_sprintf^(0+128)
  2692     064B  01A6               	clrf	(??_sprintf^(0+128)+1)
  2693     064C  0825               	movf	??_sprintf^(0+128),w
  2694     064D  02BC               	subwf	sprintf@prec^(0+128),f
  2695     064E  0826               	movf	(??_sprintf+1)^(0+128),w
  2696     064F  1C03               	skipc
  2697     0650  03BD               	decf	(sprintf@prec+1)^(0+128),f
  2698     0651  02BD               	subwf	(sprintf@prec+1)^(0+128),f
  2699     0652                     l3325:
  2700                           
  2701                           ;C:\Program Files\Microchip\xc8\v2.40\pic\sources\c90\common\doprnt.c: 1245:    if(c)
  2702     0652  0842               	movf	sprintf@c^(0+128),w
  2703     0653  1903               	btfsc	3,2
  2704     0654  2E56               	goto	u5701
  2705     0655  2E57               	goto	u5700
  2706     0656                     u5701:
  2707     0656  2E60               	goto	l3331
  2708     0657                     u5700:
  2709     0657                     l3327:
  2710                           
  2711                           ;C:\Program Files\Microchip\xc8\v2.40\pic\sources\c90\common\doprnt.c: 1247:     ((*sp++
      +                           = ('.')));
  2712     0657  083B               	movf	sprintf@sp^(0+128),w
  2713     0658  0084               	movwf	4
  2714     0659  302E               	movlw	46
  2715     065A  1383               	bcf	3,7	;select IRP bank0
  2716     065B  0080               	movwf	0
  2717     065C                     l3329:
  2718     065C  3001               	movlw	1
  2719     065D  00A5               	movwf	??_sprintf^(0+128)
  2720     065E  0825               	movf	??_sprintf^(0+128),w
  2721     065F  07BB               	addwf	sprintf@sp^(0+128),f
  2722     0660                     l3331:
  2723                           
  2724                           ;C:\Program Files\Microchip\xc8\v2.40\pic\sources\c90\common\doprnt.c: 1253:    val = (u
      +                          nsigned long)(fval * scale((signed char)c));
  2725     0660  0842               	movf	sprintf@c^(0+128),w
  2726     0661  120A  158A  24A1  120A  118A  	fcall	_scale
  2727     0666  1283               	bcf	3,5	;RP0=0, select bank0
  2728     0667  1303               	bcf	3,6	;RP1=0, select bank0
  2729     0668  0841               	movf	?_scale+3,w
  2730     0669  1683               	bsf	3,5	;RP0=1, select bank1
  2731     066A  1303               	bcf	3,6	;RP1=0, select bank1
  2732     066B  00AD               	movwf	(_sprintf$776+3)^(0+128)
  2733     066C  1283               	bcf	3,5	;RP0=0, select bank0
  2734     066D  1303               	bcf	3,6	;RP1=0, select bank0
  2735     066E  0840               	movf	?_scale+2,w
  2736     066F  1683               	bsf	3,5	;RP0=1, select bank1
  2737     0670  1303               	bcf	3,6	;RP1=0, select bank1
  2738     0671  00AC               	movwf	(_sprintf$776+2)^(0+128)
  2739     0672  1283               	bcf	3,5	;RP0=0, select bank0
  2740     0673  1303               	bcf	3,6	;RP1=0, select bank0
  2741     0674  083F               	movf	?_scale+1,w
  2742     0675  1683               	bsf	3,5	;RP0=1, select bank1
  2743     0676  1303               	bcf	3,6	;RP1=0, select bank1
  2744     0677  00AB               	movwf	(_sprintf$776+1)^(0+128)
  2745     0678  1283               	bcf	3,5	;RP0=0, select bank0
  2746     0679  1303               	bcf	3,6	;RP1=0, select bank0
  2747     067A  083E               	movf	?_scale,w
  2748     067B  1683               	bsf	3,5	;RP0=1, select bank1
  2749     067C  1303               	bcf	3,6	;RP1=0, select bank1
  2750     067D  00AA               	movwf	_sprintf$776^(0+128)
  2751     067E                     l3333:
  2752                           
  2753                           ;C:\Program Files\Microchip\xc8\v2.40\pic\sources\c90\common\doprnt.c: 1253:    val = (u
      +                          nsigned long)(fval * scale((signed char)c));
  2754     067E  082D               	movf	(_sprintf$776+3)^(0+128),w
  2755     067F  1283               	bcf	3,5	;RP0=0, select bank0
  2756     0680  1303               	bcf	3,6	;RP1=0, select bank0
  2757     0681  00AB               	movwf	___flmul@a+3
  2758     0682  1683               	bsf	3,5	;RP0=1, select bank1
  2759     0683  1303               	bcf	3,6	;RP1=0, select bank1
  2760     0684  082C               	movf	(_sprintf$776+2)^(0+128),w
  2761     0685  1283               	bcf	3,5	;RP0=0, select bank0
  2762     0686  1303               	bcf	3,6	;RP1=0, select bank0
  2763     0687  00AA               	movwf	___flmul@a+2
  2764     0688  1683               	bsf	3,5	;RP0=1, select bank1
  2765     0689  1303               	bcf	3,6	;RP1=0, select bank1
  2766     068A  082B               	movf	(_sprintf$776+1)^(0+128),w
  2767     068B  1283               	bcf	3,5	;RP0=0, select bank0
  2768     068C  1303               	bcf	3,6	;RP1=0, select bank0
  2769     068D  00A9               	movwf	___flmul@a+1
  2770     068E  1683               	bsf	3,5	;RP0=1, select bank1
  2771     068F  1303               	bcf	3,6	;RP1=0, select bank1
  2772     0690  082A               	movf	_sprintf$776^(0+128),w
  2773     0691  1283               	bcf	3,5	;RP0=0, select bank0
  2774     0692  1303               	bcf	3,6	;RP1=0, select bank0
  2775     0693  00A8               	movwf	___flmul@a
  2776     0694  1683               	bsf	3,5	;RP0=1, select bank1
  2777     0695  1303               	bcf	3,6	;RP1=0, select bank1
  2778     0696  0841               	movf	(sprintf@fval+3)^(0+128),w
  2779     0697  1283               	bcf	3,5	;RP0=0, select bank0
  2780     0698  1303               	bcf	3,6	;RP1=0, select bank0
  2781     0699  00A7               	movwf	___flmul@b+3
  2782     069A  1683               	bsf	3,5	;RP0=1, select bank1
  2783     069B  1303               	bcf	3,6	;RP1=0, select bank1
  2784     069C  0840               	movf	(sprintf@fval+2)^(0+128),w
  2785     069D  1283               	bcf	3,5	;RP0=0, select bank0
  2786     069E  1303               	bcf	3,6	;RP1=0, select bank0
  2787     069F  00A6               	movwf	___flmul@b+2
  2788     06A0  1683               	bsf	3,5	;RP0=1, select bank1
  2789     06A1  1303               	bcf	3,6	;RP1=0, select bank1
  2790     06A2  083F               	movf	(sprintf@fval+1)^(0+128),w
  2791     06A3  1283               	bcf	3,5	;RP0=0, select bank0
  2792     06A4  1303               	bcf	3,6	;RP1=0, select bank0
  2793     06A5  00A5               	movwf	___flmul@b+1
  2794     06A6  1683               	bsf	3,5	;RP0=1, select bank1
  2795     06A7  1303               	bcf	3,6	;RP1=0, select bank1
  2796     06A8  083E               	movf	sprintf@fval^(0+128),w
  2797     06A9  1283               	bcf	3,5	;RP0=0, select bank0
  2798     06AA  1303               	bcf	3,6	;RP1=0, select bank0
  2799     06AB  00A4               	movwf	___flmul@b
  2800     06AC  120A  158A  215C  120A  118A  	fcall	___flmul
  2801     06B1  1283               	bcf	3,5	;RP0=0, select bank0
  2802     06B2  1303               	bcf	3,6	;RP1=0, select bank0
  2803     06B3  0827               	movf	?___flmul+3,w
  2804     06B4  00D4               	movwf	___fltol@f1+3
  2805     06B5  0826               	movf	?___flmul+2,w
  2806     06B6  00D3               	movwf	___fltol@f1+2
  2807     06B7  0825               	movf	?___flmul+1,w
  2808     06B8  00D2               	movwf	___fltol@f1+1
  2809     06B9  0824               	movf	?___flmul,w
  2810     06BA  00D1               	movwf	___fltol@f1
  2811     06BB  160A  118A  20D5  120A  118A  	fcall	___fltol
  2812     06C0  1283               	bcf	3,5	;RP0=0, select bank0
  2813     06C1  1303               	bcf	3,6	;RP1=0, select bank0
  2814     06C2  0854               	movf	?___fltol+3,w
  2815     06C3  1683               	bsf	3,5	;RP0=1, select bank1
  2816     06C4  1303               	bcf	3,6	;RP1=0, select bank1
  2817     06C5  00B4               	movwf	(sprintf@val+3)^(0+128)
  2818     06C6  1283               	bcf	3,5	;RP0=0, select bank0
  2819     06C7  1303               	bcf	3,6	;RP1=0, select bank0
  2820     06C8  0853               	movf	?___fltol+2,w
  2821     06C9  1683               	bsf	3,5	;RP0=1, select bank1
  2822     06CA  1303               	bcf	3,6	;RP1=0, select bank1
  2823     06CB  00B3               	movwf	(sprintf@val+2)^(0+128)
  2824     06CC  1283               	bcf	3,5	;RP0=0, select bank0
  2825     06CD  1303               	bcf	3,6	;RP1=0, select bank0
  2826     06CE  0852               	movf	?___fltol+1,w
  2827     06CF  1683               	bsf	3,5	;RP0=1, select bank1
  2828     06D0  1303               	bcf	3,6	;RP1=0, select bank1
  2829     06D1  00B2               	movwf	(sprintf@val+1)^(0+128)
  2830     06D2  1283               	bcf	3,5	;RP0=0, select bank0
  2831     06D3  1303               	bcf	3,6	;RP1=0, select bank0
  2832     06D4  0851               	movf	?___fltol,w
  2833     06D5  1683               	bsf	3,5	;RP0=1, select bank1
  2834     06D6  1303               	bcf	3,6	;RP1=0, select bank1
  2835     06D7  00B1               	movwf	sprintf@val^(0+128)
  2836                           
  2837                           ;C:\Program Files\Microchip\xc8\v2.40\pic\sources\c90\common\doprnt.c: 1254:    while(c-
      +                          -) {
  2838     06D8  2F78               	goto	l3343
  2839     06D9                     l3335:
  2840                           
  2841                           ;C:\Program Files\Microchip\xc8\v2.40\pic\sources\c90\common\doprnt.c: 1255:     tmpval.
      +                          vd = val/dpowers[c];
  2842     06D9  0842               	movf	sprintf@c^(0+128),w
  2843     06DA  00A5               	movwf	??_sprintf^(0+128)
  2844     06DB  3001               	movlw	1
  2845     06DC                     u5715:
  2846     06DC  1003               	clrc
  2847     06DD  0DA5               	rlf	??_sprintf^(0+128),f
  2848     06DE  3EFF               	addlw	-1
  2849     06DF  1D03               	skipz
  2850     06E0  2EDC               	goto	u5715
  2851     06E1  1003               	clrc
  2852     06E2  0D25               	rlf	??_sprintf^(0+128),w
  2853     06E3  3E69               	addlw	low ((_dpowers-__stringbase)| (0+32768))
  2854     06E4  0084               	movwf	4
  2855     06E5  160A  118A  2000  120A  118A  	fcall	stringdir
  2856     06EA  00F0               	movwf	___lldiv@divisor
  2857     06EB  160A  118A  2000  120A  118A  	fcall	stringdir
  2858     06F0  00F1               	movwf	___lldiv@divisor+1
  2859     06F1  160A  118A  2000  120A  118A  	fcall	stringdir
  2860     06F6  00F2               	movwf	___lldiv@divisor+2
  2861     06F7  160A  118A  2000  120A  118A  	fcall	stringdir
  2862     06FC  00F3               	movwf	___lldiv@divisor+3
  2863     06FD  0834               	movf	(sprintf@val+3)^(0+128),w
  2864     06FE  00F7               	movwf	___lldiv@dividend+3
  2865     06FF  0833               	movf	(sprintf@val+2)^(0+128),w
  2866     0700  00F6               	movwf	___lldiv@dividend+2
  2867     0701  0832               	movf	(sprintf@val+1)^(0+128),w
  2868     0702  00F5               	movwf	___lldiv@dividend+1
  2869     0703  0831               	movf	sprintf@val^(0+128),w
  2870     0704  00F4               	movwf	___lldiv@dividend
  2871     0705  160A  158A  26C3  120A  118A  	fcall	___lldiv
  2872     070A  0873               	movf	?___lldiv+3,w
  2873     070B  1683               	bsf	3,5	;RP0=1, select bank1
  2874     070C  1303               	bcf	3,6	;RP1=0, select bank1
  2875     070D  00BA               	movwf	(sprintf@tmpval+3)^(0+128)
  2876     070E  0872               	movf	?___lldiv+2,w
  2877     070F  00B9               	movwf	(sprintf@tmpval+2)^(0+128)
  2878     0710  0871               	movf	?___lldiv+1,w
  2879     0711  00B8               	movwf	(sprintf@tmpval+1)^(0+128)
  2880     0712  0870               	movf	?___lldiv,w
  2881     0713  00B7               	movwf	sprintf@tmpval^(0+128)
  2882     0714                     l3337:
  2883                           
  2884                           ;C:\Program Files\Microchip\xc8\v2.40\pic\sources\c90\common\doprnt.c: 1256:     tmpval.
      +                          vd %= 10;
  2885     0714  3000               	movlw	0
  2886     0715  00F3               	movwf	___llmod@divisor+3
  2887     0716  3000               	movlw	0
  2888     0717  00F2               	movwf	___llmod@divisor+2
  2889     0718  3000               	movlw	0
  2890     0719  00F1               	movwf	___llmod@divisor+1
  2891     071A  300A               	movlw	10
  2892     071B  00F0               	movwf	___llmod@divisor
  2893     071C  083A               	movf	(sprintf@tmpval+3)^(0+128),w
  2894     071D  00F7               	movwf	___llmod@dividend+3
  2895     071E  0839               	movf	(sprintf@tmpval+2)^(0+128),w
  2896     071F  00F6               	movwf	___llmod@dividend+2
  2897     0720  0838               	movf	(sprintf@tmpval+1)^(0+128),w
  2898     0721  00F5               	movwf	___llmod@dividend+1
  2899     0722  0837               	movf	sprintf@tmpval^(0+128),w
  2900     0723  00F4               	movwf	___llmod@dividend
  2901     0724  160A  158A  2616  120A  118A  	fcall	___llmod
  2902     0729  0873               	movf	?___llmod+3,w
  2903     072A  1683               	bsf	3,5	;RP0=1, select bank1
  2904     072B  1303               	bcf	3,6	;RP1=0, select bank1
  2905     072C  00BA               	movwf	(sprintf@tmpval+3)^(0+128)
  2906     072D  0872               	movf	?___llmod+2,w
  2907     072E  00B9               	movwf	(sprintf@tmpval+2)^(0+128)
  2908     072F  0871               	movf	?___llmod+1,w
  2909     0730  00B8               	movwf	(sprintf@tmpval+1)^(0+128)
  2910     0731  0870               	movf	?___llmod,w
  2911     0732  00B7               	movwf	sprintf@tmpval^(0+128)
  2912     0733                     l3339:
  2913                           
  2914                           ;C:\Program Files\Microchip\xc8\v2.40\pic\sources\c90\common\doprnt.c: 1257:     ((*sp++
      +                           = ('0' + tmpval.vd)));
  2915     0733  083B               	movf	sprintf@sp^(0+128),w
  2916     0734  0084               	movwf	4
  2917     0735  0837               	movf	sprintf@tmpval^(0+128),w
  2918     0736  3E30               	addlw	48
  2919     0737  1383               	bcf	3,7	;select IRP bank0
  2920     0738  0080               	movwf	0
  2921     0739  3001               	movlw	1
  2922     073A  00A5               	movwf	??_sprintf^(0+128)
  2923     073B  0825               	movf	??_sprintf^(0+128),w
  2924     073C  07BB               	addwf	sprintf@sp^(0+128),f
  2925     073D                     l3341:
  2926                           
  2927                           ;C:\Program Files\Microchip\xc8\v2.40\pic\sources\c90\common\doprnt.c: 1258:     val %= 
      +                          dpowers[c];
  2928     073D  0842               	movf	sprintf@c^(0+128),w
  2929     073E  00A5               	movwf	??_sprintf^(0+128)
  2930     073F  3001               	movlw	1
  2931     0740                     u5725:
  2932     0740  1003               	clrc
  2933     0741  0DA5               	rlf	??_sprintf^(0+128),f
  2934     0742  3EFF               	addlw	-1
  2935     0743  1D03               	skipz
  2936     0744  2F40               	goto	u5725
  2937     0745  1003               	clrc
  2938     0746  0D25               	rlf	??_sprintf^(0+128),w
  2939     0747  3E69               	addlw	low ((_dpowers-__stringbase)| (0+32768))
  2940     0748  0084               	movwf	4
  2941     0749  160A  118A  2000  120A  118A  	fcall	stringdir
  2942     074E  00F0               	movwf	___llmod@divisor
  2943     074F  160A  118A  2000  120A  118A  	fcall	stringdir
  2944     0754  00F1               	movwf	___llmod@divisor+1
  2945     0755  160A  118A  2000  120A  118A  	fcall	stringdir
  2946     075A  00F2               	movwf	___llmod@divisor+2
  2947     075B  160A  118A  2000  120A  118A  	fcall	stringdir
  2948     0760  00F3               	movwf	___llmod@divisor+3
  2949     0761  0834               	movf	(sprintf@val+3)^(0+128),w
  2950     0762  00F7               	movwf	___llmod@dividend+3
  2951     0763  0833               	movf	(sprintf@val+2)^(0+128),w
  2952     0764  00F6               	movwf	___llmod@dividend+2
  2953     0765  0832               	movf	(sprintf@val+1)^(0+128),w
  2954     0766  00F5               	movwf	___llmod@dividend+1
  2955     0767  0831               	movf	sprintf@val^(0+128),w
  2956     0768  00F4               	movwf	___llmod@dividend
  2957     0769  160A  158A  2616  120A  118A  	fcall	___llmod
  2958     076E  0873               	movf	?___llmod+3,w
  2959     076F  1683               	bsf	3,5	;RP0=1, select bank1
  2960     0770  1303               	bcf	3,6	;RP1=0, select bank1
  2961     0771  00B4               	movwf	(sprintf@val+3)^(0+128)
  2962     0772  0872               	movf	?___llmod+2,w
  2963     0773  00B3               	movwf	(sprintf@val+2)^(0+128)
  2964     0774  0871               	movf	?___llmod+1,w
  2965     0775  00B2               	movwf	(sprintf@val+1)^(0+128)
  2966     0776  0870               	movf	?___llmod,w
  2967     0777  00B1               	movwf	sprintf@val^(0+128)
  2968     0778                     l3343:
  2969                           
  2970                           ;C:\Program Files\Microchip\xc8\v2.40\pic\sources\c90\common\doprnt.c: 1254:    while(c-
      +                          -) {
  2971     0778  3001               	movlw	1
  2972     0779  02C2               	subwf	sprintf@c^(0+128),f
  2973     077A  0A42               	incf	sprintf@c^(0+128),w
  2974     077B  1D03               	btfss	3,2
  2975     077C  2F7E               	goto	u5731
  2976     077D  2F7F               	goto	u5730
  2977     077E                     u5731:
  2978     077E  2ED9               	goto	l3335
  2979     077F                     u5730:
  2980     077F  2F8F               	goto	l3351
  2981     0780                     l3345:
  2982                           
  2983                           ;C:\Program Files\Microchip\xc8\v2.40\pic\sources\c90\common\doprnt.c: 1262:     ((*sp++
      +                           = ('0')));
  2984     0780  083B               	movf	sprintf@sp^(0+128),w
  2985     0781  0084               	movwf	4
  2986     0782  3030               	movlw	48
  2987     0783  1383               	bcf	3,7	;select IRP bank0
  2988     0784  0080               	movwf	0
  2989     0785                     l3347:
  2990     0785  3001               	movlw	1
  2991     0786  00A5               	movwf	??_sprintf^(0+128)
  2992     0787  0825               	movf	??_sprintf^(0+128),w
  2993     0788  07BB               	addwf	sprintf@sp^(0+128),f
  2994     0789                     l3349:
  2995                           
  2996                           ;C:\Program Files\Microchip\xc8\v2.40\pic\sources\c90\common\doprnt.c: 1263:     prec--;
  2997     0789  30FF               	movlw	255
  2998     078A  07BC               	addwf	sprintf@prec^(0+128),f
  2999     078B  1803               	skipnc
  3000     078C  0ABD               	incf	(sprintf@prec+1)^(0+128),f
  3001     078D  30FF               	movlw	255
  3002     078E  07BD               	addwf	(sprintf@prec+1)^(0+128),f
  3003     078F                     l3351:
  3004                           
  3005                           ;C:\Program Files\Microchip\xc8\v2.40\pic\sources\c90\common\doprnt.c: 1261:    while(pr
      +                          ec) {
  3006     078F  083C               	movf	sprintf@prec^(0+128),w
  3007     0790  043D               	iorwf	(sprintf@prec+1)^(0+128),w
  3008     0791  1D03               	btfss	3,2
  3009     0792  2F94               	goto	u5741
  3010     0793  2F95               	goto	u5740
  3011     0794                     u5741:
  3012     0794  2F80               	goto	l3345
  3013     0795                     u5740:
  3014     0795  2FD9               	goto	l3371
  3015     0796                     l3353:
  3016                           
  3017                           ;C:\Program Files\Microchip\xc8\v2.40\pic\sources\c90\common\doprnt.c: 1316:   if(prec =
      +                          = 0 && val == 0)
  3018     0796  083C               	movf	sprintf@prec^(0+128),w
  3019     0797  043D               	iorwf	(sprintf@prec+1)^(0+128),w
  3020     0798  1D03               	btfss	3,2
  3021     0799  2F9B               	goto	u5751
  3022     079A  2F9C               	goto	u5750
  3023     079B                     u5751:
  3024     079B  2FAA               	goto	l264
  3025     079C                     u5750:
  3026     079C                     l3355:
  3027     079C  0834               	movf	(sprintf@val+3)^(0+128),w
  3028     079D  0433               	iorwf	(sprintf@val+2)^(0+128),w
  3029     079E  0432               	iorwf	(sprintf@val+1)^(0+128),w
  3030     079F  0431               	iorwf	sprintf@val^(0+128),w
  3031     07A0  1D03               	skipz
  3032     07A1  2FA3               	goto	u5761
  3033     07A2  2FA4               	goto	u5760
  3034     07A3                     u5761:
  3035     07A3  2FAA               	goto	l264
  3036     07A4                     u5760:
  3037     07A4                     l3357:
  3038                           
  3039                           ;C:\Program Files\Microchip\xc8\v2.40\pic\sources\c90\common\doprnt.c: 1317:    prec++;
  3040     07A4  3001               	movlw	1
  3041     07A5  07BC               	addwf	sprintf@prec^(0+128),f
  3042     07A6  1803               	skipnc
  3043     07A7  0ABD               	incf	(sprintf@prec+1)^(0+128),f
  3044     07A8  3000               	movlw	0
  3045     07A9  07BD               	addwf	(sprintf@prec+1)^(0+128),f
  3046     07AA                     l264:
  3047                           
  3048                           ;C:\Program Files\Microchip\xc8\v2.40\pic\sources\c90\common\doprnt.c: 1365:   if(c < pr
      +                          ec)
  3049     07AA  083D               	movf	(sprintf@prec+1)^(0+128),w
  3050     07AB  3A80               	xorlw	128
  3051     07AC  3C80               	sublw	128
  3052     07AD  1D03               	skipz
  3053     07AE  2FB1               	goto	u5775
  3054     07AF  083C               	movf	sprintf@prec^(0+128),w
  3055     07B0  0242               	subwf	sprintf@c^(0+128),w
  3056     07B1                     u5775:
  3057     07B1  1803               	skipnc
  3058     07B2  2FB4               	goto	u5771
  3059     07B3  2FB5               	goto	u5770
  3060     07B4                     u5771:
  3061     07B4  2FB6               	goto	l3361
  3062     07B5                     u5770:
  3063     07B5                     l3359:
  3064     07B5  2FC5               	goto	l3365
  3065     07B6                     l3361:
  3066     07B6  1683               	bsf	3,5	;RP0=1, select bank1
  3067     07B7  1303               	bcf	3,6	;RP1=0, select bank1
  3068     07B8  083D               	movf	(sprintf@prec+1)^(0+128),w
  3069     07B9  3A80               	xorlw	128
  3070     07BA  00A5               	movwf	??_sprintf^(0+128)
  3071     07BB  3080               	movlw	128
  3072     07BC  0225               	subwf	??_sprintf^(0+128),w
  3073     07BD  1D03               	skipz
  3074     07BE  2FC1               	goto	u5785
  3075     07BF  0842               	movf	sprintf@c^(0+128),w
  3076     07C0  023C               	subwf	sprintf@prec^(0+128),w
  3077     07C1                     u5785:
  3078     07C1  1803               	skipnc
  3079     07C2  2FC4               	goto	u5781
  3080     07C3  2FC5               	goto	u5780
  3081     07C4                     u5781:
  3082     07C4  2FC5               	goto	l3365
  3083     07C5                     u5780:
  3084     07C5                     l3363:
  3085     07C5                     l3365:
  3086                           
  3087                           ;C:\Program Files\Microchip\xc8\v2.40\pic\sources\c90\common\doprnt.c: 1448:   {;C:\Prog
      +                          ram Files\Microchip\xc8\v2.40\pic\sources\c90\common\doprnt.c: 1464:    if(flag & 0x03)
  3088     07C5  3003               	movlw	3
  3089     07C6  1683               	bsf	3,5	;RP0=1, select bank1
  3090     07C7  1303               	bcf	3,6	;RP1=0, select bank1
  3091     07C8  052F               	andwf	sprintf@flag^(0+128),w
  3092     07C9  00A5               	movwf	??_sprintf^(0+128)
  3093     07CA  3000               	movlw	0
  3094     07CB  0530               	andwf	(sprintf@flag+1)^(0+128),w
  3095     07CC  00A6               	movwf	(??_sprintf+1)^(0+128)
  3096     07CD  0825               	movf	??_sprintf^(0+128),w
  3097     07CE  0426               	iorwf	(??_sprintf^(0+128)+1),w
  3098     07CF  1903               	btfsc	3,2
  3099     07D0  2FD2               	goto	u5791
  3100     07D1  2FD3               	goto	u5790
  3101     07D2                     u5791:
  3102     07D2  2FD9               	goto	l3371
  3103     07D3                     u5790:
  3104     07D3                     l3367:
  3105                           
  3106                           ;C:\Program Files\Microchip\xc8\v2.40\pic\sources\c90\common\doprnt.c: 1465:     ((*sp++
      +                           = ('-')));
  3107     07D3  083B               	movf	sprintf@sp^(0+128),w
  3108     07D4  0084               	movwf	4
  3109     07D5  302D               	movlw	45
  3110     07D6  1383               	bcf	3,7	;select IRP bank0
  3111     07D7  0080               	movwf	0
  3112     07D8  29BF               	goto	l3183
  3113     07D9                     l3371:
  3114                           
  3115                           ;C:\Program Files\Microchip\xc8\v2.40\pic\sources\c90\common\doprnt.c: 553:  while((c = 
      +                          *f++)) {
  3116     07D9  3001               	movlw	1
  3117     07DA  07A0               	addwf	sprintf@f^(0+128),f
  3118     07DB  30FF               	movlw	-1
  3119     07DC  0720               	addwf	sprintf@f^(0+128),w
  3120     07DD  0084               	movwf	4
  3121     07DE  160A  118A  2000  120A  118A  	fcall	stringdir
  3122     07E3  00C2               	movwf	sprintf@c^(0+128)
  3123     07E4  0842               	movf	sprintf@c^(0+128),w
  3124     07E5  1D03               	btfss	3,2
  3125     07E6  2FE8               	goto	u5801
  3126     07E7  2FE9               	goto	u5800
  3127     07E8                     u5801:
  3128     07E8  29B4               	goto	l3179
  3129     07E9                     u5800:
  3130     07E9                     l3373:
  3131                           
  3132                           ;C:\Program Files\Microchip\xc8\v2.40\pic\sources\c90\common\doprnt.c: 1564:  *sp = 0;
  3133     07E9  083B               	movf	sprintf@sp^(0+128),w
  3134     07EA  0084               	movwf	4
  3135     07EB  1383               	bcf	3,7	;select IRP bank0
  3136     07EC  0180               	clrf	0
  3137     07ED                     l270:
  3138     07ED  0008               	return
  3139     07EE                     __end_of_sprintf:
  3140                           
  3141                           	psect	text2
  3142     0CA1                     __ptext2:	
  3143 ;; *************** function _scale *****************
  3144 ;; Defined at:
  3145 ;;		line 433 in file "C:\Program Files\Microchip\xc8\v2.40\pic\sources\c90\common\doprnt.c"
  3146 ;; Parameters:    Size  Location     Type
  3147 ;;  scl             1    wreg     char 
  3148 ;; Auto vars:     Size  Location     Type
  3149 ;;  scl             1   48[BANK0 ] char 
  3150 ;; Return value:  Size  Location     Type
  3151 ;;                  4   30[BANK0 ] char 
  3152 ;; Registers used:
  3153 ;;		wreg, fsr0l, fsr0h, status,2, status,0, btemp+1, pclath, cstack
  3154 ;; Tracked objects:
  3155 ;;		On entry : 0/0
  3156 ;;		On exit  : 0/0
  3157 ;;		Unchanged: 0/0
  3158 ;; Data sizes:     COMMON   BANK0   BANK1   BANK3   BANK2
  3159 ;;      Params:         0       4       0       0       0
  3160 ;;      Locals:         0       5       0       0       0
  3161 ;;      Temps:          0      10       0       0       0
  3162 ;;      Totals:         0      19       0       0       0
  3163 ;;Total ram usage:       19 bytes
  3164 ;; Hardware stack levels used: 1
  3165 ;; Hardware stack levels required when called: 2
  3166 ;; This function calls:
  3167 ;;		___awdiv
  3168 ;;		___awmod
  3169 ;;		___flmul
  3170 ;; This function is called by:
  3171 ;;		_sprintf
  3172 ;; This function uses a non-reentrant model
  3173 ;;
  3174                           
  3175     0CA1                     _scale:	
  3176                           ;psect for function _scale
  3177                           
  3178                           
  3179                           ;incstack = 0
  3180                           ; Regs used in _scale: [wreg-fsr0h+status,2+status,0+btemp+1+pclath+cstack]
  3181                           ;scale@scl stored from wreg
  3182     0CA1  1283               	bcf	3,5	;RP0=0, select bank0
  3183     0CA2  1303               	bcf	3,6	;RP1=0, select bank0
  3184     0CA3  00D0               	movwf	scale@scl
  3185     0CA4                     l2643:
  3186                           
  3187                           ;C:\Program Files\Microchip\xc8\v2.40\pic\sources\c90\common\doprnt.c: 433: scale(signed
      +                           char scl);C:\Program Files\Microchip\xc8\v2.40\pic\sources\c90\common\doprnt.c: 434: {;
      +                          C:\Program Files\Microchip\xc8\v2.40\pic\sources\c90\common\doprnt.c: 436:  if(scl < 0) 
      +                          {
  3188     0CA4  1FD0               	btfss	scale@scl,7
  3189     0CA5  2CA7               	goto	u4191
  3190     0CA6  2CA8               	goto	u4190
  3191     0CA7                     u4191:
  3192     0CA7  2E55               	goto	l2665
  3193     0CA8                     u4190:
  3194     0CA8                     l2645:
  3195                           
  3196                           ;C:\Program Files\Microchip\xc8\v2.40\pic\sources\c90\common\doprnt.c: 437:   scl = -scl
      +                          ;
  3197     0CA8  09D0               	comf	scale@scl,f
  3198     0CA9  0AD0               	incf	scale@scl,f
  3199     0CAA                     l2647:
  3200                           
  3201                           ;C:\Program Files\Microchip\xc8\v2.40\pic\sources\c90\common\doprnt.c: 438:   if(scl>=11
      +                          0)
  3202     0CAA  0850               	movf	scale@scl,w
  3203     0CAB  3A80               	xorlw	128
  3204     0CAC  3E12               	addlw	-238
  3205     0CAD  1C03               	skipc
  3206     0CAE  2CB0               	goto	u4201
  3207     0CAF  2CB1               	goto	u4200
  3208     0CB0                     u4201:
  3209     0CB0  2D99               	goto	l2655
  3210     0CB1                     u4200:
  3211     0CB1                     l2649:
  3212                           
  3213                           ;C:\Program Files\Microchip\xc8\v2.40\pic\sources\c90\common\doprnt.c: 439:    return _n
      +                          powers_[(unsigned char)(scl/100+18)] * _npowers_[(unsigned char)((scl%100)/10+9)] * _npo
      +                          wers_[(unsigned char)(scl%10)];
  3214     0CB1  300A               	movlw	10
  3215     0CB2  00F7               	movwf	___awdiv@divisor
  3216     0CB3  3000               	movlw	0
  3217     0CB4  00F8               	movwf	___awdiv@divisor+1
  3218     0CB5  0850               	movf	scale@scl,w
  3219     0CB6  00F2               	movwf	___awmod@dividend
  3220     0CB7  01F3               	clrf	___awmod@dividend+1
  3221     0CB8  1BF2               	btfsc	___awmod@dividend,7
  3222     0CB9  03F3               	decf	___awmod@dividend+1,f
  3223     0CBA  3064               	movlw	100
  3224     0CBB  00F0               	movwf	___awmod@divisor
  3225     0CBC  3000               	movlw	0
  3226     0CBD  00F1               	movwf	___awmod@divisor+1
  3227     0CBE  160A  158A  266A  120A  158A  	fcall	___awmod
  3228     0CC3  0871               	movf	?___awmod+1,w
  3229     0CC4  00FA               	movwf	___awdiv@dividend+1
  3230     0CC5  0870               	movf	?___awmod,w
  3231     0CC6  00F9               	movwf	___awdiv@dividend
  3232     0CC7  160A  158A  2729  120A  158A  	fcall	___awdiv
  3233     0CCC  0877               	movf	?___awdiv,w
  3234     0CCD  1283               	bcf	3,5	;RP0=0, select bank0
  3235     0CCE  1303               	bcf	3,6	;RP1=0, select bank0
  3236     0CCF  00C2               	movwf	??_scale
  3237     0CD0  3001               	movlw	1
  3238     0CD1                     u4215:
  3239     0CD1  1003               	clrc
  3240     0CD2  0DC2               	rlf	??_scale,f
  3241     0CD3  3EFF               	addlw	-1
  3242     0CD4  1D03               	skipz
  3243     0CD5  2CD1               	goto	u4215
  3244     0CD6  1003               	clrc
  3245     0CD7  0D42               	rlf	??_scale,w
  3246     0CD8  3E59               	addlw	low (((__npowers_-__stringbase)| (0+32768)+36))
  3247     0CD9  0084               	movwf	4
  3248     0CDA  160A  118A  2000  120A  158A  	fcall	stringdir
  3249     0CDF  00C3               	movwf	??_scale+1
  3250     0CE0  160A  118A  2000  120A  158A  	fcall	stringdir
  3251     0CE5  00C4               	movwf	??_scale+2
  3252     0CE6  160A  118A  2000  120A  158A  	fcall	stringdir
  3253     0CEB  00C5               	movwf	??_scale+3
  3254     0CEC  160A  118A  2000  120A  158A  	fcall	stringdir
  3255     0CF1  00C6               	movwf	??_scale+4
  3256     0CF2  0846               	movf	??_scale+4,w
  3257     0CF3  00A7               	movwf	___flmul@b+3
  3258     0CF4  0845               	movf	??_scale+3,w
  3259     0CF5  00A6               	movwf	___flmul@b+2
  3260     0CF6  0844               	movf	??_scale+2,w
  3261     0CF7  00A5               	movwf	___flmul@b+1
  3262     0CF8  0843               	movf	??_scale+1,w
  3263     0CF9  00A4               	movwf	___flmul@b
  3264     0CFA  3064               	movlw	100
  3265     0CFB  00F7               	movwf	___awdiv@divisor
  3266     0CFC  3000               	movlw	0
  3267     0CFD  00F8               	movwf	___awdiv@divisor+1
  3268     0CFE  0850               	movf	scale@scl,w
  3269     0CFF  00F9               	movwf	___awdiv@dividend
  3270     0D00  01FA               	clrf	___awdiv@dividend+1
  3271     0D01  1BF9               	btfsc	___awdiv@dividend,7
  3272     0D02  03FA               	decf	___awdiv@dividend+1,f
  3273     0D03  160A  158A  2729  120A  158A  	fcall	___awdiv
  3274     0D08  0877               	movf	?___awdiv,w
  3275     0D09  1283               	bcf	3,5	;RP0=0, select bank0
  3276     0D0A  1303               	bcf	3,6	;RP1=0, select bank0
  3277     0D0B  00C7               	movwf	??_scale+5
  3278     0D0C  3001               	movlw	1
  3279     0D0D                     u4225:
  3280     0D0D  1003               	clrc
  3281     0D0E  0DC7               	rlf	??_scale+5,f
  3282     0D0F  3EFF               	addlw	-1
  3283     0D10  1D03               	skipz
  3284     0D11  2D0D               	goto	u4225
  3285     0D12  1003               	clrc
  3286     0D13  0D47               	rlf	??_scale+5,w
  3287     0D14  3E7D               	addlw	low (((__npowers_-__stringbase)| (0+32768)+72))
  3288     0D15  0084               	movwf	4
  3289     0D16  160A  118A  2000  120A  158A  	fcall	stringdir
  3290     0D1B  00C8               	movwf	??_scale+6
  3291     0D1C  160A  118A  2000  120A  158A  	fcall	stringdir
  3292     0D21  00C9               	movwf	??_scale+7
  3293     0D22  160A  118A  2000  120A  158A  	fcall	stringdir
  3294     0D27  00CA               	movwf	??_scale+8
  3295     0D28  160A  118A  2000  120A  158A  	fcall	stringdir
  3296     0D2D  00CB               	movwf	??_scale+9
  3297     0D2E  084B               	movf	??_scale+9,w
  3298     0D2F  00AB               	movwf	___flmul@a+3
  3299     0D30  084A               	movf	??_scale+8,w
  3300     0D31  00AA               	movwf	___flmul@a+2
  3301     0D32  0849               	movf	??_scale+7,w
  3302     0D33  00A9               	movwf	___flmul@a+1
  3303     0D34  0848               	movf	??_scale+6,w
  3304     0D35  00A8               	movwf	___flmul@a
  3305     0D36  120A  158A  215C  120A  158A  	fcall	___flmul
  3306     0D3B  1283               	bcf	3,5	;RP0=0, select bank0
  3307     0D3C  1303               	bcf	3,6	;RP1=0, select bank0
  3308     0D3D  0827               	movf	?___flmul+3,w
  3309     0D3E  00CF               	movwf	_scale$775+3
  3310     0D3F  0826               	movf	?___flmul+2,w
  3311     0D40  00CE               	movwf	_scale$775+2
  3312     0D41  0825               	movf	?___flmul+1,w
  3313     0D42  00CD               	movwf	_scale$775+1
  3314     0D43  0824               	movf	?___flmul,w
  3315     0D44  00CC               	movwf	_scale$775
  3316                           
  3317                           ;C:\Program Files\Microchip\xc8\v2.40\pic\sources\c90\common\doprnt.c: 439:    return _n
      +                          powers_[(unsigned char)(scl/100+18)] * _npowers_[(unsigned char)((scl%100)/10+9)] * _npo
      +                          wers_[(unsigned char)(scl%10)];
  3318     0D45  300A               	movlw	10
  3319     0D46  00F0               	movwf	___awmod@divisor
  3320     0D47  3000               	movlw	0
  3321     0D48  00F1               	movwf	___awmod@divisor+1
  3322     0D49  0850               	movf	scale@scl,w
  3323     0D4A  00F2               	movwf	___awmod@dividend
  3324     0D4B  01F3               	clrf	___awmod@dividend+1
  3325     0D4C  1BF2               	btfsc	___awmod@dividend,7
  3326     0D4D  03F3               	decf	___awmod@dividend+1,f
  3327     0D4E  160A  158A  266A  120A  158A  	fcall	___awmod
  3328     0D53  0870               	movf	?___awmod,w
  3329     0D54  1283               	bcf	3,5	;RP0=0, select bank0
  3330     0D55  1303               	bcf	3,6	;RP1=0, select bank0
  3331     0D56  00C2               	movwf	??_scale
  3332     0D57  3001               	movlw	1
  3333     0D58                     u4235:
  3334     0D58  1003               	clrc
  3335     0D59  0DC2               	rlf	??_scale,f
  3336     0D5A  3EFF               	addlw	-1
  3337     0D5B  1D03               	skipz
  3338     0D5C  2D58               	goto	u4235
  3339     0D5D  1003               	clrc
  3340     0D5E  0D42               	rlf	??_scale,w
  3341     0D5F  3E35               	addlw	low ((__npowers_-__stringbase)| (0+32768))
  3342     0D60  0084               	movwf	4
  3343     0D61  160A  118A  2000  120A  158A  	fcall	stringdir
  3344     0D66  00C3               	movwf	??_scale+1
  3345     0D67  160A  118A  2000  120A  158A  	fcall	stringdir
  3346     0D6C  00C4               	movwf	??_scale+2
  3347     0D6D  160A  118A  2000  120A  158A  	fcall	stringdir
  3348     0D72  00C5               	movwf	??_scale+3
  3349     0D73  160A  118A  2000  120A  158A  	fcall	stringdir
  3350     0D78  00C6               	movwf	??_scale+4
  3351     0D79  0846               	movf	??_scale+4,w
  3352     0D7A  00A7               	movwf	___flmul@b+3
  3353     0D7B  0845               	movf	??_scale+3,w
  3354     0D7C  00A6               	movwf	___flmul@b+2
  3355     0D7D  0844               	movf	??_scale+2,w
  3356     0D7E  00A5               	movwf	___flmul@b+1
  3357     0D7F  0843               	movf	??_scale+1,w
  3358     0D80  00A4               	movwf	___flmul@b
  3359     0D81  084F               	movf	_scale$775+3,w
  3360     0D82  00AB               	movwf	___flmul@a+3
  3361     0D83  084E               	movf	_scale$775+2,w
  3362     0D84  00AA               	movwf	___flmul@a+2
  3363     0D85  084D               	movf	_scale$775+1,w
  3364     0D86  00A9               	movwf	___flmul@a+1
  3365     0D87  084C               	movf	_scale$775,w
  3366     0D88  00A8               	movwf	___flmul@a
  3367     0D89  120A  158A  215C  120A  158A  	fcall	___flmul
  3368     0D8E  1283               	bcf	3,5	;RP0=0, select bank0
  3369     0D8F  1303               	bcf	3,6	;RP1=0, select bank0
  3370     0D90  0827               	movf	?___flmul+3,w
  3371     0D91  00C1               	movwf	?_scale+3
  3372     0D92  0826               	movf	?___flmul+2,w
  3373     0D93  00C0               	movwf	?_scale+2
  3374     0D94  0825               	movf	?___flmul+1,w
  3375     0D95  00BF               	movwf	?_scale+1
  3376     0D96  0824               	movf	?___flmul,w
  3377     0D97  00BE               	movwf	?_scale
  3378     0D98  2FFF               	goto	l204
  3379     0D99                     l2655:
  3380     0D99  0850               	movf	scale@scl,w
  3381     0D9A  3A80               	xorlw	128
  3382     0D9B  3E75               	addlw	-139
  3383     0D9C  1C03               	skipc
  3384     0D9D  2D9F               	goto	u4241
  3385     0D9E  2DA0               	goto	u4240
  3386     0D9F                     u4241:
  3387     0D9F  2E28               	goto	l2661
  3388     0DA0                     u4240:
  3389     0DA0                     l2657:
  3390                           
  3391                           ;C:\Program Files\Microchip\xc8\v2.40\pic\sources\c90\common\doprnt.c: 441:    return _n
      +                          powers_[(unsigned char)(scl/10+9)] * _npowers_[(unsigned char)(scl%10)];
  3392     0DA0  300A               	movlw	10
  3393     0DA1  00F0               	movwf	___awmod@divisor
  3394     0DA2  3000               	movlw	0
  3395     0DA3  00F1               	movwf	___awmod@divisor+1
  3396     0DA4  0850               	movf	scale@scl,w
  3397     0DA5  00F2               	movwf	___awmod@dividend
  3398     0DA6  01F3               	clrf	___awmod@dividend+1
  3399     0DA7  1BF2               	btfsc	___awmod@dividend,7
  3400     0DA8  03F3               	decf	___awmod@dividend+1,f
  3401     0DA9  160A  158A  266A  120A  158A  	fcall	___awmod
  3402     0DAE  0870               	movf	?___awmod,w
  3403     0DAF  1283               	bcf	3,5	;RP0=0, select bank0
  3404     0DB0  1303               	bcf	3,6	;RP1=0, select bank0
  3405     0DB1  00C2               	movwf	??_scale
  3406     0DB2  3001               	movlw	1
  3407     0DB3                     u4255:
  3408     0DB3  1003               	clrc
  3409     0DB4  0DC2               	rlf	??_scale,f
  3410     0DB5  3EFF               	addlw	-1
  3411     0DB6  1D03               	skipz
  3412     0DB7  2DB3               	goto	u4255
  3413     0DB8  1003               	clrc
  3414     0DB9  0D42               	rlf	??_scale,w
  3415     0DBA  3E35               	addlw	low ((__npowers_-__stringbase)| (0+32768))
  3416     0DBB  0084               	movwf	4
  3417     0DBC  160A  118A  2000  120A  158A  	fcall	stringdir
  3418     0DC1  00C3               	movwf	??_scale+1
  3419     0DC2  160A  118A  2000  120A  158A  	fcall	stringdir
  3420     0DC7  00C4               	movwf	??_scale+2
  3421     0DC8  160A  118A  2000  120A  158A  	fcall	stringdir
  3422     0DCD  00C5               	movwf	??_scale+3
  3423     0DCE  160A  118A  2000  120A  158A  	fcall	stringdir
  3424     0DD3  00C6               	movwf	??_scale+4
  3425     0DD4  0846               	movf	??_scale+4,w
  3426     0DD5  00A7               	movwf	___flmul@b+3
  3427     0DD6  0845               	movf	??_scale+3,w
  3428     0DD7  00A6               	movwf	___flmul@b+2
  3429     0DD8  0844               	movf	??_scale+2,w
  3430     0DD9  00A5               	movwf	___flmul@b+1
  3431     0DDA  0843               	movf	??_scale+1,w
  3432     0DDB  00A4               	movwf	___flmul@b
  3433     0DDC  300A               	movlw	10
  3434     0DDD  00F7               	movwf	___awdiv@divisor
  3435     0DDE  3000               	movlw	0
  3436     0DDF  00F8               	movwf	___awdiv@divisor+1
  3437     0DE0  0850               	movf	scale@scl,w
  3438     0DE1  00F9               	movwf	___awdiv@dividend
  3439     0DE2  01FA               	clrf	___awdiv@dividend+1
  3440     0DE3  1BF9               	btfsc	___awdiv@dividend,7
  3441     0DE4  03FA               	decf	___awdiv@dividend+1,f
  3442     0DE5  160A  158A  2729  120A  158A  	fcall	___awdiv
  3443     0DEA  0877               	movf	?___awdiv,w
  3444     0DEB  1283               	bcf	3,5	;RP0=0, select bank0
  3445     0DEC  1303               	bcf	3,6	;RP1=0, select bank0
  3446     0DED  00C7               	movwf	??_scale+5
  3447     0DEE  3001               	movlw	1
  3448     0DEF                     u4265:
  3449     0DEF  1003               	clrc
  3450     0DF0  0DC7               	rlf	??_scale+5,f
  3451     0DF1  3EFF               	addlw	-1
  3452     0DF2  1D03               	skipz
  3453     0DF3  2DEF               	goto	u4265
  3454     0DF4  1003               	clrc
  3455     0DF5  0D47               	rlf	??_scale+5,w
  3456     0DF6  3E59               	addlw	low (((__npowers_-__stringbase)| (0+32768)+36))
  3457     0DF7  0084               	movwf	4
  3458     0DF8  160A  118A  2000  120A  158A  	fcall	stringdir
  3459     0DFD  00C8               	movwf	??_scale+6
  3460     0DFE  160A  118A  2000  120A  158A  	fcall	stringdir
  3461     0E03  00C9               	movwf	??_scale+7
  3462     0E04  160A  118A  2000  120A  158A  	fcall	stringdir
  3463     0E09  00CA               	movwf	??_scale+8
  3464     0E0A  160A  118A  2000  120A  158A  	fcall	stringdir
  3465     0E0F  00CB               	movwf	??_scale+9
  3466     0E10  084B               	movf	??_scale+9,w
  3467     0E11  00AB               	movwf	___flmul@a+3
  3468     0E12  084A               	movf	??_scale+8,w
  3469     0E13  00AA               	movwf	___flmul@a+2
  3470     0E14  0849               	movf	??_scale+7,w
  3471     0E15  00A9               	movwf	___flmul@a+1
  3472     0E16  0848               	movf	??_scale+6,w
  3473     0E17  00A8               	movwf	___flmul@a
  3474     0E18  120A  158A  215C  120A  158A  	fcall	___flmul
  3475     0E1D  1283               	bcf	3,5	;RP0=0, select bank0
  3476     0E1E  1303               	bcf	3,6	;RP1=0, select bank0
  3477     0E1F  0827               	movf	?___flmul+3,w
  3478     0E20  00C1               	movwf	?_scale+3
  3479     0E21  0826               	movf	?___flmul+2,w
  3480     0E22  00C0               	movwf	?_scale+2
  3481     0E23  0825               	movf	?___flmul+1,w
  3482     0E24  00BF               	movwf	?_scale+1
  3483     0E25  0824               	movf	?___flmul,w
  3484     0E26  00BE               	movwf	?_scale
  3485     0E27  2FFF               	goto	l204
  3486     0E28                     l2661:
  3487                           
  3488                           ;C:\Program Files\Microchip\xc8\v2.40\pic\sources\c90\common\doprnt.c: 442:   return _np
      +                          owers_[(unsigned char)scl];
  3489     0E28  0850               	movf	scale@scl,w
  3490     0E29  00C2               	movwf	??_scale
  3491     0E2A  3001               	movlw	1
  3492     0E2B                     u4275:
  3493     0E2B  1003               	clrc
  3494     0E2C  0DC2               	rlf	??_scale,f
  3495     0E2D  3EFF               	addlw	-1
  3496     0E2E  1D03               	skipz
  3497     0E2F  2E2B               	goto	u4275
  3498     0E30  1003               	clrc
  3499     0E31  0D42               	rlf	??_scale,w
  3500     0E32  3E35               	addlw	low ((__npowers_-__stringbase)| (0+32768))
  3501     0E33  0084               	movwf	4
  3502     0E34  160A  118A  2000  120A  158A  	fcall	stringdir
  3503     0E39  00C3               	movwf	??_scale+1
  3504     0E3A  160A  118A  2000  120A  158A  	fcall	stringdir
  3505     0E3F  00C4               	movwf	??_scale+2
  3506     0E40  160A  118A  2000  120A  158A  	fcall	stringdir
  3507     0E45  00C5               	movwf	??_scale+3
  3508     0E46  160A  118A  2000  120A  158A  	fcall	stringdir
  3509     0E4B  00C6               	movwf	??_scale+4
  3510     0E4C  0846               	movf	??_scale+4,w
  3511     0E4D  00C1               	movwf	?_scale+3
  3512     0E4E  0845               	movf	??_scale+3,w
  3513     0E4F  00C0               	movwf	?_scale+2
  3514     0E50  0844               	movf	??_scale+2,w
  3515     0E51  00BF               	movwf	?_scale+1
  3516     0E52  0843               	movf	??_scale+1,w
  3517     0E53  00BE               	movwf	?_scale
  3518     0E54  2FFF               	goto	l204
  3519     0E55                     l2665:
  3520                           
  3521                           ;C:\Program Files\Microchip\xc8\v2.40\pic\sources\c90\common\doprnt.c: 444:  if(scl>=110
      +                          )
  3522     0E55  0850               	movf	scale@scl,w
  3523     0E56  3A80               	xorlw	128
  3524     0E57  3E12               	addlw	-238
  3525     0E58  1C03               	skipc
  3526     0E59  2E5B               	goto	u4281
  3527     0E5A  2E5C               	goto	u4280
  3528     0E5B                     u4281:
  3529     0E5B  2F44               	goto	l2673
  3530     0E5C                     u4280:
  3531     0E5C                     l2667:
  3532                           
  3533                           ;C:\Program Files\Microchip\xc8\v2.40\pic\sources\c90\common\doprnt.c: 445:   return _po
      +                          wers_[(unsigned char)(scl/100+18)] * _powers_[(unsigned char)((scl%100)/10+9)] * _powers
      +                          _[(unsigned char)(scl%10)];
  3534     0E5C  300A               	movlw	10
  3535     0E5D  00F7               	movwf	___awdiv@divisor
  3536     0E5E  3000               	movlw	0
  3537     0E5F  00F8               	movwf	___awdiv@divisor+1
  3538     0E60  0850               	movf	scale@scl,w
  3539     0E61  00F2               	movwf	___awmod@dividend
  3540     0E62  01F3               	clrf	___awmod@dividend+1
  3541     0E63  1BF2               	btfsc	___awmod@dividend,7
  3542     0E64  03F3               	decf	___awmod@dividend+1,f
  3543     0E65  3064               	movlw	100
  3544     0E66  00F0               	movwf	___awmod@divisor
  3545     0E67  3000               	movlw	0
  3546     0E68  00F1               	movwf	___awmod@divisor+1
  3547     0E69  160A  158A  266A  120A  158A  	fcall	___awmod
  3548     0E6E  0871               	movf	?___awmod+1,w
  3549     0E6F  00FA               	movwf	___awdiv@dividend+1
  3550     0E70  0870               	movf	?___awmod,w
  3551     0E71  00F9               	movwf	___awdiv@dividend
  3552     0E72  160A  158A  2729  120A  158A  	fcall	___awdiv
  3553     0E77  0877               	movf	?___awdiv,w
  3554     0E78  1283               	bcf	3,5	;RP0=0, select bank0
  3555     0E79  1303               	bcf	3,6	;RP1=0, select bank0
  3556     0E7A  00C2               	movwf	??_scale
  3557     0E7B  3001               	movlw	1
  3558     0E7C                     u4295:
  3559     0E7C  1003               	clrc
  3560     0E7D  0DC2               	rlf	??_scale,f
  3561     0E7E  3EFF               	addlw	-1
  3562     0E7F  1D03               	skipz
  3563     0E80  2E7C               	goto	u4295
  3564     0E81  1003               	clrc
  3565     0E82  0D42               	rlf	??_scale,w
  3566     0E83  3E25               	addlw	low (((__powers_-__stringbase)| (0+32768)+36))
  3567     0E84  0084               	movwf	4
  3568     0E85  160A  118A  2000  120A  158A  	fcall	stringdir
  3569     0E8A  00C3               	movwf	??_scale+1
  3570     0E8B  160A  118A  2000  120A  158A  	fcall	stringdir
  3571     0E90  00C4               	movwf	??_scale+2
  3572     0E91  160A  118A  2000  120A  158A  	fcall	stringdir
  3573     0E96  00C5               	movwf	??_scale+3
  3574     0E97  160A  118A  2000  120A  158A  	fcall	stringdir
  3575     0E9C  00C6               	movwf	??_scale+4
  3576     0E9D  0846               	movf	??_scale+4,w
  3577     0E9E  00A7               	movwf	___flmul@b+3
  3578     0E9F  0845               	movf	??_scale+3,w
  3579     0EA0  00A6               	movwf	___flmul@b+2
  3580     0EA1  0844               	movf	??_scale+2,w
  3581     0EA2  00A5               	movwf	___flmul@b+1
  3582     0EA3  0843               	movf	??_scale+1,w
  3583     0EA4  00A4               	movwf	___flmul@b
  3584     0EA5  3064               	movlw	100
  3585     0EA6  00F7               	movwf	___awdiv@divisor
  3586     0EA7  3000               	movlw	0
  3587     0EA8  00F8               	movwf	___awdiv@divisor+1
  3588     0EA9  0850               	movf	scale@scl,w
  3589     0EAA  00F9               	movwf	___awdiv@dividend
  3590     0EAB  01FA               	clrf	___awdiv@dividend+1
  3591     0EAC  1BF9               	btfsc	___awdiv@dividend,7
  3592     0EAD  03FA               	decf	___awdiv@dividend+1,f
  3593     0EAE  160A  158A  2729  120A  158A  	fcall	___awdiv
  3594     0EB3  0877               	movf	?___awdiv,w
  3595     0EB4  1283               	bcf	3,5	;RP0=0, select bank0
  3596     0EB5  1303               	bcf	3,6	;RP1=0, select bank0
  3597     0EB6  00C7               	movwf	??_scale+5
  3598     0EB7  3001               	movlw	1
  3599     0EB8                     u4305:
  3600     0EB8  1003               	clrc
  3601     0EB9  0DC7               	rlf	??_scale+5,f
  3602     0EBA  3EFF               	addlw	-1
  3603     0EBB  1D03               	skipz
  3604     0EBC  2EB8               	goto	u4305
  3605     0EBD  1003               	clrc
  3606     0EBE  0D47               	rlf	??_scale+5,w
  3607     0EBF  3E49               	addlw	low (((__powers_-__stringbase)| (0+32768)+72))
  3608     0EC0  0084               	movwf	4
  3609     0EC1  160A  118A  2000  120A  158A  	fcall	stringdir
  3610     0EC6  00C8               	movwf	??_scale+6
  3611     0EC7  160A  118A  2000  120A  158A  	fcall	stringdir
  3612     0ECC  00C9               	movwf	??_scale+7
  3613     0ECD  160A  118A  2000  120A  158A  	fcall	stringdir
  3614     0ED2  00CA               	movwf	??_scale+8
  3615     0ED3  160A  118A  2000  120A  158A  	fcall	stringdir
  3616     0ED8  00CB               	movwf	??_scale+9
  3617     0ED9  084B               	movf	??_scale+9,w
  3618     0EDA  00AB               	movwf	___flmul@a+3
  3619     0EDB  084A               	movf	??_scale+8,w
  3620     0EDC  00AA               	movwf	___flmul@a+2
  3621     0EDD  0849               	movf	??_scale+7,w
  3622     0EDE  00A9               	movwf	___flmul@a+1
  3623     0EDF  0848               	movf	??_scale+6,w
  3624     0EE0  00A8               	movwf	___flmul@a
  3625     0EE1  120A  158A  215C  120A  158A  	fcall	___flmul
  3626     0EE6  1283               	bcf	3,5	;RP0=0, select bank0
  3627     0EE7  1303               	bcf	3,6	;RP1=0, select bank0
  3628     0EE8  0827               	movf	?___flmul+3,w
  3629     0EE9  00CF               	movwf	_scale$775+3
  3630     0EEA  0826               	movf	?___flmul+2,w
  3631     0EEB  00CE               	movwf	_scale$775+2
  3632     0EEC  0825               	movf	?___flmul+1,w
  3633     0EED  00CD               	movwf	_scale$775+1
  3634     0EEE  0824               	movf	?___flmul,w
  3635     0EEF  00CC               	movwf	_scale$775
  3636                           
  3637                           ;C:\Program Files\Microchip\xc8\v2.40\pic\sources\c90\common\doprnt.c: 445:   return _po
      +                          wers_[(unsigned char)(scl/100+18)] * _powers_[(unsigned char)((scl%100)/10+9)] * _powers
      +                          _[(unsigned char)(scl%10)];
  3638     0EF0  300A               	movlw	10
  3639     0EF1  00F0               	movwf	___awmod@divisor
  3640     0EF2  3000               	movlw	0
  3641     0EF3  00F1               	movwf	___awmod@divisor+1
  3642     0EF4  0850               	movf	scale@scl,w
  3643     0EF5  00F2               	movwf	___awmod@dividend
  3644     0EF6  01F3               	clrf	___awmod@dividend+1
  3645     0EF7  1BF2               	btfsc	___awmod@dividend,7
  3646     0EF8  03F3               	decf	___awmod@dividend+1,f
  3647     0EF9  160A  158A  266A  120A  158A  	fcall	___awmod
  3648     0EFE  0870               	movf	?___awmod,w
  3649     0EFF  1283               	bcf	3,5	;RP0=0, select bank0
  3650     0F00  1303               	bcf	3,6	;RP1=0, select bank0
  3651     0F01  00C2               	movwf	??_scale
  3652     0F02  3001               	movlw	1
  3653     0F03                     u4315:
  3654     0F03  1003               	clrc
  3655     0F04  0DC2               	rlf	??_scale,f
  3656     0F05  3EFF               	addlw	-1
  3657     0F06  1D03               	skipz
  3658     0F07  2F03               	goto	u4315
  3659     0F08  1003               	clrc
  3660     0F09  0D42               	rlf	??_scale,w
  3661     0F0A  3E01               	addlw	low ((__powers_-__stringbase)| (0+32768))
  3662     0F0B  0084               	movwf	4
  3663     0F0C  160A  118A  2000  120A  158A  	fcall	stringdir
  3664     0F11  00C3               	movwf	??_scale+1
  3665     0F12  160A  118A  2000  120A  158A  	fcall	stringdir
  3666     0F17  00C4               	movwf	??_scale+2
  3667     0F18  160A  118A  2000  120A  158A  	fcall	stringdir
  3668     0F1D  00C5               	movwf	??_scale+3
  3669     0F1E  160A  118A  2000  120A  158A  	fcall	stringdir
  3670     0F23  00C6               	movwf	??_scale+4
  3671     0F24  0846               	movf	??_scale+4,w
  3672     0F25  00A7               	movwf	___flmul@b+3
  3673     0F26  0845               	movf	??_scale+3,w
  3674     0F27  00A6               	movwf	___flmul@b+2
  3675     0F28  0844               	movf	??_scale+2,w
  3676     0F29  00A5               	movwf	___flmul@b+1
  3677     0F2A  0843               	movf	??_scale+1,w
  3678     0F2B  00A4               	movwf	___flmul@b
  3679     0F2C  084F               	movf	_scale$775+3,w
  3680     0F2D  00AB               	movwf	___flmul@a+3
  3681     0F2E  084E               	movf	_scale$775+2,w
  3682     0F2F  00AA               	movwf	___flmul@a+2
  3683     0F30  084D               	movf	_scale$775+1,w
  3684     0F31  00A9               	movwf	___flmul@a+1
  3685     0F32  084C               	movf	_scale$775,w
  3686     0F33  00A8               	movwf	___flmul@a
  3687     0F34  120A  158A  215C  120A  158A  	fcall	___flmul
  3688     0F39  1283               	bcf	3,5	;RP0=0, select bank0
  3689     0F3A  1303               	bcf	3,6	;RP1=0, select bank0
  3690     0F3B  0827               	movf	?___flmul+3,w
  3691     0F3C  00C1               	movwf	?_scale+3
  3692     0F3D  0826               	movf	?___flmul+2,w
  3693     0F3E  00C0               	movwf	?_scale+2
  3694     0F3F  0825               	movf	?___flmul+1,w
  3695     0F40  00BF               	movwf	?_scale+1
  3696     0F41  0824               	movf	?___flmul,w
  3697     0F42  00BE               	movwf	?_scale
  3698     0F43  2FFF               	goto	l204
  3699     0F44                     l2673:
  3700     0F44  0850               	movf	scale@scl,w
  3701     0F45  3A80               	xorlw	128
  3702     0F46  3E75               	addlw	-139
  3703     0F47  1C03               	skipc
  3704     0F48  2F4A               	goto	u4321
  3705     0F49  2F4B               	goto	u4320
  3706     0F4A                     u4321:
  3707     0F4A  2FD3               	goto	l2679
  3708     0F4B                     u4320:
  3709     0F4B                     l2675:
  3710                           
  3711                           ;C:\Program Files\Microchip\xc8\v2.40\pic\sources\c90\common\doprnt.c: 447:   return _po
      +                          wers_[(unsigned char)(scl/10+9)] * _powers_[(unsigned char)(scl%10)];
  3712     0F4B  300A               	movlw	10
  3713     0F4C  00F0               	movwf	___awmod@divisor
  3714     0F4D  3000               	movlw	0
  3715     0F4E  00F1               	movwf	___awmod@divisor+1
  3716     0F4F  0850               	movf	scale@scl,w
  3717     0F50  00F2               	movwf	___awmod@dividend
  3718     0F51  01F3               	clrf	___awmod@dividend+1
  3719     0F52  1BF2               	btfsc	___awmod@dividend,7
  3720     0F53  03F3               	decf	___awmod@dividend+1,f
  3721     0F54  160A  158A  266A  120A  158A  	fcall	___awmod
  3722     0F59  0870               	movf	?___awmod,w
  3723     0F5A  1283               	bcf	3,5	;RP0=0, select bank0
  3724     0F5B  1303               	bcf	3,6	;RP1=0, select bank0
  3725     0F5C  00C2               	movwf	??_scale
  3726     0F5D  3001               	movlw	1
  3727     0F5E                     u4335:
  3728     0F5E  1003               	clrc
  3729     0F5F  0DC2               	rlf	??_scale,f
  3730     0F60  3EFF               	addlw	-1
  3731     0F61  1D03               	skipz
  3732     0F62  2F5E               	goto	u4335
  3733     0F63  1003               	clrc
  3734     0F64  0D42               	rlf	??_scale,w
  3735     0F65  3E01               	addlw	low ((__powers_-__stringbase)| (0+32768))
  3736     0F66  0084               	movwf	4
  3737     0F67  160A  118A  2000  120A  158A  	fcall	stringdir
  3738     0F6C  00C3               	movwf	??_scale+1
  3739     0F6D  160A  118A  2000  120A  158A  	fcall	stringdir
  3740     0F72  00C4               	movwf	??_scale+2
  3741     0F73  160A  118A  2000  120A  158A  	fcall	stringdir
  3742     0F78  00C5               	movwf	??_scale+3
  3743     0F79  160A  118A  2000  120A  158A  	fcall	stringdir
  3744     0F7E  00C6               	movwf	??_scale+4
  3745     0F7F  0846               	movf	??_scale+4,w
  3746     0F80  00A7               	movwf	___flmul@b+3
  3747     0F81  0845               	movf	??_scale+3,w
  3748     0F82  00A6               	movwf	___flmul@b+2
  3749     0F83  0844               	movf	??_scale+2,w
  3750     0F84  00A5               	movwf	___flmul@b+1
  3751     0F85  0843               	movf	??_scale+1,w
  3752     0F86  00A4               	movwf	___flmul@b
  3753     0F87  300A               	movlw	10
  3754     0F88  00F7               	movwf	___awdiv@divisor
  3755     0F89  3000               	movlw	0
  3756     0F8A  00F8               	movwf	___awdiv@divisor+1
  3757     0F8B  0850               	movf	scale@scl,w
  3758     0F8C  00F9               	movwf	___awdiv@dividend
  3759     0F8D  01FA               	clrf	___awdiv@dividend+1
  3760     0F8E  1BF9               	btfsc	___awdiv@dividend,7
  3761     0F8F  03FA               	decf	___awdiv@dividend+1,f
  3762     0F90  160A  158A  2729  120A  158A  	fcall	___awdiv
  3763     0F95  0877               	movf	?___awdiv,w
  3764     0F96  1283               	bcf	3,5	;RP0=0, select bank0
  3765     0F97  1303               	bcf	3,6	;RP1=0, select bank0
  3766     0F98  00C7               	movwf	??_scale+5
  3767     0F99  3001               	movlw	1
  3768     0F9A                     u4345:
  3769     0F9A  1003               	clrc
  3770     0F9B  0DC7               	rlf	??_scale+5,f
  3771     0F9C  3EFF               	addlw	-1
  3772     0F9D  1D03               	skipz
  3773     0F9E  2F9A               	goto	u4345
  3774     0F9F  1003               	clrc
  3775     0FA0  0D47               	rlf	??_scale+5,w
  3776     0FA1  3E25               	addlw	low (((__powers_-__stringbase)| (0+32768)+36))
  3777     0FA2  0084               	movwf	4
  3778     0FA3  160A  118A  2000  120A  158A  	fcall	stringdir
  3779     0FA8  00C8               	movwf	??_scale+6
  3780     0FA9  160A  118A  2000  120A  158A  	fcall	stringdir
  3781     0FAE  00C9               	movwf	??_scale+7
  3782     0FAF  160A  118A  2000  120A  158A  	fcall	stringdir
  3783     0FB4  00CA               	movwf	??_scale+8
  3784     0FB5  160A  118A  2000  120A  158A  	fcall	stringdir
  3785     0FBA  00CB               	movwf	??_scale+9
  3786     0FBB  084B               	movf	??_scale+9,w
  3787     0FBC  00AB               	movwf	___flmul@a+3
  3788     0FBD  084A               	movf	??_scale+8,w
  3789     0FBE  00AA               	movwf	___flmul@a+2
  3790     0FBF  0849               	movf	??_scale+7,w
  3791     0FC0  00A9               	movwf	___flmul@a+1
  3792     0FC1  0848               	movf	??_scale+6,w
  3793     0FC2  00A8               	movwf	___flmul@a
  3794     0FC3  120A  158A  215C  120A  158A  	fcall	___flmul
  3795     0FC8  1283               	bcf	3,5	;RP0=0, select bank0
  3796     0FC9  1303               	bcf	3,6	;RP1=0, select bank0
  3797     0FCA  0827               	movf	?___flmul+3,w
  3798     0FCB  00C1               	movwf	?_scale+3
  3799     0FCC  0826               	movf	?___flmul+2,w
  3800     0FCD  00C0               	movwf	?_scale+2
  3801     0FCE  0825               	movf	?___flmul+1,w
  3802     0FCF  00BF               	movwf	?_scale+1
  3803     0FD0  0824               	movf	?___flmul,w
  3804     0FD1  00BE               	movwf	?_scale
  3805     0FD2  2FFF               	goto	l204
  3806     0FD3                     l2679:
  3807                           
  3808                           ;C:\Program Files\Microchip\xc8\v2.40\pic\sources\c90\common\doprnt.c: 448:  return _pow
      +                          ers_[(unsigned char)scl];
  3809     0FD3  0850               	movf	scale@scl,w
  3810     0FD4  00C2               	movwf	??_scale
  3811     0FD5  3001               	movlw	1
  3812     0FD6                     u4355:
  3813     0FD6  1003               	clrc
  3814     0FD7  0DC2               	rlf	??_scale,f
  3815     0FD8  3EFF               	addlw	-1
  3816     0FD9  1D03               	skipz
  3817     0FDA  2FD6               	goto	u4355
  3818     0FDB  1003               	clrc
  3819     0FDC  0D42               	rlf	??_scale,w
  3820     0FDD  3E01               	addlw	low ((__powers_-__stringbase)| (0+32768))
  3821     0FDE  0084               	movwf	4
  3822     0FDF  160A  118A  2000  120A  158A  	fcall	stringdir
  3823     0FE4  00C3               	movwf	??_scale+1
  3824     0FE5  160A  118A  2000  120A  158A  	fcall	stringdir
  3825     0FEA  00C4               	movwf	??_scale+2
  3826     0FEB  160A  118A  2000  120A  158A  	fcall	stringdir
  3827     0FF0  00C5               	movwf	??_scale+3
  3828     0FF1  160A  118A  2000  120A  158A  	fcall	stringdir
  3829     0FF6  00C6               	movwf	??_scale+4
  3830     0FF7  0846               	movf	??_scale+4,w
  3831     0FF8  00C1               	movwf	?_scale+3
  3832     0FF9  0845               	movf	??_scale+3,w
  3833     0FFA  00C0               	movwf	?_scale+2
  3834     0FFB  0844               	movf	??_scale+2,w
  3835     0FFC  00BF               	movwf	?_scale+1
  3836     0FFD  0843               	movf	??_scale+1,w
  3837     0FFE  00BE               	movwf	?_scale
  3838     0FFF                     l204:
  3839     0FFF  0008               	return
  3840     1000                     __end_of_scale:
  3841                           
  3842                           	psect	text3
  3843     1E6A                     __ptext3:	
  3844 ;; *************** function ___awmod *****************
  3845 ;; Defined at:
  3846 ;;		line 5 in file "C:\Program Files\Microchip\xc8\v2.40\pic\sources\c90\common\awmod.c"
  3847 ;; Parameters:    Size  Location     Type
  3848 ;;  divisor         2    0[COMMON] int 
  3849 ;;  dividend        2    2[COMMON] int 
  3850 ;; Auto vars:     Size  Location     Type
  3851 ;;  sign            1    6[COMMON] unsigned char 
  3852 ;;  counter         1    5[COMMON] unsigned char 
  3853 ;; Return value:  Size  Location     Type
  3854 ;;                  2    0[COMMON] int 
  3855 ;; Registers used:
  3856 ;;		wreg, status,2, status,0
  3857 ;; Tracked objects:
  3858 ;;		On entry : 0/0
  3859 ;;		On exit  : 0/0
  3860 ;;		Unchanged: 0/0
  3861 ;; Data sizes:     COMMON   BANK0   BANK1   BANK3   BANK2
  3862 ;;      Params:         4       0       0       0       0
  3863 ;;      Locals:         2       0       0       0       0
  3864 ;;      Temps:          1       0       0       0       0
  3865 ;;      Totals:         7       0       0       0       0
  3866 ;;Total ram usage:        7 bytes
  3867 ;; Hardware stack levels used: 1
  3868 ;; This function calls:
  3869 ;;		Nothing
  3870 ;; This function is called by:
  3871 ;;		_scale
  3872 ;; This function uses a non-reentrant model
  3873 ;;
  3874                           
  3875     1E6A                     ___awmod:	
  3876                           ;psect for function ___awmod
  3877                           
  3878     1E6A                     l2195:	
  3879                           ;incstack = 0
  3880                           ; Regs used in ___awmod: [wreg+status,2+status,0]
  3881                           
  3882     1E6A  01F6               	clrf	___awmod@sign
  3883     1E6B                     l2197:
  3884     1E6B  1FF3               	btfss	___awmod@dividend+1,7
  3885     1E6C  2E6E               	goto	u3051
  3886     1E6D  2E6F               	goto	u3050
  3887     1E6E                     u3051:
  3888     1E6E  2E76               	goto	l2203
  3889     1E6F                     u3050:
  3890     1E6F                     l2199:
  3891     1E6F  09F2               	comf	___awmod@dividend,f
  3892     1E70  09F3               	comf	___awmod@dividend+1,f
  3893     1E71  0AF2               	incf	___awmod@dividend,f
  3894     1E72  1903               	skipnz
  3895     1E73  0AF3               	incf	___awmod@dividend+1,f
  3896     1E74                     l2201:
  3897     1E74  01F6               	clrf	___awmod@sign
  3898     1E75  0AF6               	incf	___awmod@sign,f
  3899     1E76                     l2203:
  3900     1E76  1FF1               	btfss	___awmod@divisor+1,7
  3901     1E77  2E79               	goto	u3061
  3902     1E78  2E7A               	goto	u3060
  3903     1E79                     u3061:
  3904     1E79  2E7F               	goto	l2207
  3905     1E7A                     u3060:
  3906     1E7A                     l2205:
  3907     1E7A  09F0               	comf	___awmod@divisor,f
  3908     1E7B  09F1               	comf	___awmod@divisor+1,f
  3909     1E7C  0AF0               	incf	___awmod@divisor,f
  3910     1E7D  1903               	skipnz
  3911     1E7E  0AF1               	incf	___awmod@divisor+1,f
  3912     1E7F                     l2207:
  3913     1E7F  0870               	movf	___awmod@divisor,w
  3914     1E80  0471               	iorwf	___awmod@divisor+1,w
  3915     1E81  1903               	btfsc	3,2
  3916     1E82  2E84               	goto	u3071
  3917     1E83  2E85               	goto	u3070
  3918     1E84                     u3071:
  3919     1E84  2EB4               	goto	l2225
  3920     1E85                     u3070:
  3921     1E85                     l2209:
  3922     1E85  01F5               	clrf	___awmod@counter
  3923     1E86  0AF5               	incf	___awmod@counter,f
  3924     1E87  2E93               	goto	l2215
  3925     1E88                     l2211:
  3926     1E88  3001               	movlw	1
  3927     1E89                     u3085:
  3928     1E89  1003               	clrc
  3929     1E8A  0DF0               	rlf	___awmod@divisor,f
  3930     1E8B  0DF1               	rlf	___awmod@divisor+1,f
  3931     1E8C  3EFF               	addlw	-1
  3932     1E8D  1D03               	skipz
  3933     1E8E  2E89               	goto	u3085
  3934     1E8F                     l2213:
  3935     1E8F  3001               	movlw	1
  3936     1E90  00F4               	movwf	??___awmod
  3937     1E91  0874               	movf	??___awmod,w
  3938     1E92  07F5               	addwf	___awmod@counter,f
  3939     1E93                     l2215:
  3940     1E93  1FF1               	btfss	___awmod@divisor+1,7
  3941     1E94  2E96               	goto	u3091
  3942     1E95  2E97               	goto	u3090
  3943     1E96                     u3091:
  3944     1E96  2E88               	goto	l2211
  3945     1E97                     u3090:
  3946     1E97                     l2217:
  3947     1E97  0871               	movf	___awmod@divisor+1,w
  3948     1E98  0273               	subwf	___awmod@dividend+1,w
  3949     1E99  1D03               	skipz
  3950     1E9A  2E9D               	goto	u3105
  3951     1E9B  0870               	movf	___awmod@divisor,w
  3952     1E9C  0272               	subwf	___awmod@dividend,w
  3953     1E9D                     u3105:
  3954     1E9D  1C03               	skipc
  3955     1E9E  2EA0               	goto	u3101
  3956     1E9F  2EA1               	goto	u3100
  3957     1EA0                     u3101:
  3958     1EA0  2EA7               	goto	l2221
  3959     1EA1                     u3100:
  3960     1EA1                     l2219:
  3961     1EA1  0870               	movf	___awmod@divisor,w
  3962     1EA2  02F2               	subwf	___awmod@dividend,f
  3963     1EA3  0871               	movf	___awmod@divisor+1,w
  3964     1EA4  1C03               	skipc
  3965     1EA5  03F3               	decf	___awmod@dividend+1,f
  3966     1EA6  02F3               	subwf	___awmod@dividend+1,f
  3967     1EA7                     l2221:
  3968     1EA7  3001               	movlw	1
  3969     1EA8                     u3115:
  3970     1EA8  1003               	clrc
  3971     1EA9  0CF1               	rrf	___awmod@divisor+1,f
  3972     1EAA  0CF0               	rrf	___awmod@divisor,f
  3973     1EAB  3EFF               	addlw	-1
  3974     1EAC  1D03               	skipz
  3975     1EAD  2EA8               	goto	u3115
  3976     1EAE                     l2223:
  3977     1EAE  3001               	movlw	1
  3978     1EAF  02F5               	subwf	___awmod@counter,f
  3979     1EB0  1D03               	btfss	3,2
  3980     1EB1  2EB3               	goto	u3121
  3981     1EB2  2EB4               	goto	u3120
  3982     1EB3                     u3121:
  3983     1EB3  2E97               	goto	l2217
  3984     1EB4                     u3120:
  3985     1EB4                     l2225:
  3986     1EB4  0876               	movf	___awmod@sign,w
  3987     1EB5  1903               	btfsc	3,2
  3988     1EB6  2EB8               	goto	u3131
  3989     1EB7  2EB9               	goto	u3130
  3990     1EB8                     u3131:
  3991     1EB8  2EBE               	goto	l2229
  3992     1EB9                     u3130:
  3993     1EB9                     l2227:
  3994     1EB9  09F2               	comf	___awmod@dividend,f
  3995     1EBA  09F3               	comf	___awmod@dividend+1,f
  3996     1EBB  0AF2               	incf	___awmod@dividend,f
  3997     1EBC  1903               	skipnz
  3998     1EBD  0AF3               	incf	___awmod@dividend+1,f
  3999     1EBE                     l2229:
  4000     1EBE  0873               	movf	___awmod@dividend+1,w
  4001     1EBF  00F1               	movwf	?___awmod+1
  4002     1EC0  0872               	movf	___awmod@dividend,w
  4003     1EC1  00F0               	movwf	?___awmod
  4004     1EC2                     l440:
  4005     1EC2  0008               	return
  4006     1EC3                     __end_of___awmod:
  4007                           
  4008                           	psect	text4
  4009     1F29                     __ptext4:	
  4010 ;; *************** function ___awdiv *****************
  4011 ;; Defined at:
  4012 ;;		line 5 in file "C:\Program Files\Microchip\xc8\v2.40\pic\sources\c90\common\awdiv.c"
  4013 ;; Parameters:    Size  Location     Type
  4014 ;;  divisor         2    7[COMMON] int 
  4015 ;;  dividend        2    9[COMMON] int 
  4016 ;; Auto vars:     Size  Location     Type
  4017 ;;  quotient        2    2[BANK0 ] int 
  4018 ;;  sign            1    1[BANK0 ] unsigned char 
  4019 ;;  counter         1    0[BANK0 ] unsigned char 
  4020 ;; Return value:  Size  Location     Type
  4021 ;;                  2    7[COMMON] int 
  4022 ;; Registers used:
  4023 ;;		wreg, status,2, status,0
  4024 ;; Tracked objects:
  4025 ;;		On entry : 0/0
  4026 ;;		On exit  : 0/0
  4027 ;;		Unchanged: 0/0
  4028 ;; Data sizes:     COMMON   BANK0   BANK1   BANK3   BANK2
  4029 ;;      Params:         4       0       0       0       0
  4030 ;;      Locals:         0       4       0       0       0
  4031 ;;      Temps:          1       0       0       0       0
  4032 ;;      Totals:         5       4       0       0       0
  4033 ;;Total ram usage:        9 bytes
  4034 ;; Hardware stack levels used: 1
  4035 ;; This function calls:
  4036 ;;		Nothing
  4037 ;; This function is called by:
  4038 ;;		_scale
  4039 ;;		_sprintf
  4040 ;; This function uses a non-reentrant model
  4041 ;;
  4042                           
  4043     1F29                     ___awdiv:	
  4044                           ;psect for function ___awdiv
  4045                           
  4046     1F29                     l2151:	
  4047                           ;incstack = 0
  4048                           ; Regs used in ___awdiv: [wreg+status,2+status,0]
  4049                           
  4050     1F29  1283               	bcf	3,5	;RP0=0, select bank0
  4051     1F2A  1303               	bcf	3,6	;RP1=0, select bank0
  4052     1F2B  01A1               	clrf	___awdiv@sign
  4053     1F2C                     l2153:
  4054     1F2C  1FF8               	btfss	___awdiv@divisor+1,7
  4055     1F2D  2F2F               	goto	u2951
  4056     1F2E  2F30               	goto	u2950
  4057     1F2F                     u2951:
  4058     1F2F  2F37               	goto	l2159
  4059     1F30                     u2950:
  4060     1F30                     l2155:
  4061     1F30  09F7               	comf	___awdiv@divisor,f
  4062     1F31  09F8               	comf	___awdiv@divisor+1,f
  4063     1F32  0AF7               	incf	___awdiv@divisor,f
  4064     1F33  1903               	skipnz
  4065     1F34  0AF8               	incf	___awdiv@divisor+1,f
  4066     1F35                     l2157:
  4067     1F35  01A1               	clrf	___awdiv@sign
  4068     1F36  0AA1               	incf	___awdiv@sign,f
  4069     1F37                     l2159:
  4070     1F37  1FFA               	btfss	___awdiv@dividend+1,7
  4071     1F38  2F3A               	goto	u2961
  4072     1F39  2F3B               	goto	u2960
  4073     1F3A                     u2961:
  4074     1F3A  2F44               	goto	l2165
  4075     1F3B                     u2960:
  4076     1F3B                     l2161:
  4077     1F3B  09F9               	comf	___awdiv@dividend,f
  4078     1F3C  09FA               	comf	___awdiv@dividend+1,f
  4079     1F3D  0AF9               	incf	___awdiv@dividend,f
  4080     1F3E  1903               	skipnz
  4081     1F3F  0AFA               	incf	___awdiv@dividend+1,f
  4082     1F40                     l2163:
  4083     1F40  3001               	movlw	1
  4084     1F41  00FB               	movwf	??___awdiv
  4085     1F42  087B               	movf	??___awdiv,w
  4086     1F43  06A1               	xorwf	___awdiv@sign,f
  4087     1F44                     l2165:
  4088     1F44  01A2               	clrf	___awdiv@quotient
  4089     1F45  01A3               	clrf	___awdiv@quotient+1
  4090     1F46                     l2167:
  4091     1F46  0877               	movf	___awdiv@divisor,w
  4092     1F47  0478               	iorwf	___awdiv@divisor+1,w
  4093     1F48  1903               	btfsc	3,2
  4094     1F49  2F4B               	goto	u2971
  4095     1F4A  2F4C               	goto	u2970
  4096     1F4B                     u2971:
  4097     1F4B  2F83               	goto	l2187
  4098     1F4C                     u2970:
  4099     1F4C                     l2169:
  4100     1F4C  01A0               	clrf	___awdiv@counter
  4101     1F4D  0AA0               	incf	___awdiv@counter,f
  4102     1F4E  2F5A               	goto	l2175
  4103     1F4F                     l2171:
  4104     1F4F  3001               	movlw	1
  4105     1F50                     u2985:
  4106     1F50  1003               	clrc
  4107     1F51  0DF7               	rlf	___awdiv@divisor,f
  4108     1F52  0DF8               	rlf	___awdiv@divisor+1,f
  4109     1F53  3EFF               	addlw	-1
  4110     1F54  1D03               	skipz
  4111     1F55  2F50               	goto	u2985
  4112     1F56                     l2173:
  4113     1F56  3001               	movlw	1
  4114     1F57  00FB               	movwf	??___awdiv
  4115     1F58  087B               	movf	??___awdiv,w
  4116     1F59  07A0               	addwf	___awdiv@counter,f
  4117     1F5A                     l2175:
  4118     1F5A  1FF8               	btfss	___awdiv@divisor+1,7
  4119     1F5B  2F5D               	goto	u2991
  4120     1F5C  2F5E               	goto	u2990
  4121     1F5D                     u2991:
  4122     1F5D  2F4F               	goto	l2171
  4123     1F5E                     u2990:
  4124     1F5E                     l2177:
  4125     1F5E  3001               	movlw	1
  4126     1F5F                     u3005:
  4127     1F5F  1003               	clrc
  4128     1F60  0DA2               	rlf	___awdiv@quotient,f
  4129     1F61  0DA3               	rlf	___awdiv@quotient+1,f
  4130     1F62  3EFF               	addlw	-1
  4131     1F63  1D03               	skipz
  4132     1F64  2F5F               	goto	u3005
  4133     1F65  0878               	movf	___awdiv@divisor+1,w
  4134     1F66  027A               	subwf	___awdiv@dividend+1,w
  4135     1F67  1D03               	skipz
  4136     1F68  2F6B               	goto	u3015
  4137     1F69  0877               	movf	___awdiv@divisor,w
  4138     1F6A  0279               	subwf	___awdiv@dividend,w
  4139     1F6B                     u3015:
  4140     1F6B  1C03               	skipc
  4141     1F6C  2F6E               	goto	u3011
  4142     1F6D  2F6F               	goto	u3010
  4143     1F6E                     u3011:
  4144     1F6E  2F76               	goto	l2183
  4145     1F6F                     u3010:
  4146     1F6F                     l2179:
  4147     1F6F  0877               	movf	___awdiv@divisor,w
  4148     1F70  02F9               	subwf	___awdiv@dividend,f
  4149     1F71  0878               	movf	___awdiv@divisor+1,w
  4150     1F72  1C03               	skipc
  4151     1F73  03FA               	decf	___awdiv@dividend+1,f
  4152     1F74  02FA               	subwf	___awdiv@dividend+1,f
  4153     1F75                     l2181:
  4154     1F75  1422               	bsf	___awdiv@quotient,0
  4155     1F76                     l2183:
  4156     1F76  3001               	movlw	1
  4157     1F77                     u3025:
  4158     1F77  1003               	clrc
  4159     1F78  0CF8               	rrf	___awdiv@divisor+1,f
  4160     1F79  0CF7               	rrf	___awdiv@divisor,f
  4161     1F7A  3EFF               	addlw	-1
  4162     1F7B  1D03               	skipz
  4163     1F7C  2F77               	goto	u3025
  4164     1F7D                     l2185:
  4165     1F7D  3001               	movlw	1
  4166     1F7E  02A0               	subwf	___awdiv@counter,f
  4167     1F7F  1D03               	btfss	3,2
  4168     1F80  2F82               	goto	u3031
  4169     1F81  2F83               	goto	u3030
  4170     1F82                     u3031:
  4171     1F82  2F5E               	goto	l2177
  4172     1F83                     u3030:
  4173     1F83                     l2187:
  4174     1F83  0821               	movf	___awdiv@sign,w
  4175     1F84  1903               	btfsc	3,2
  4176     1F85  2F87               	goto	u3041
  4177     1F86  2F88               	goto	u3040
  4178     1F87                     u3041:
  4179     1F87  2F8D               	goto	l2191
  4180     1F88                     u3040:
  4181     1F88                     l2189:
  4182     1F88  09A2               	comf	___awdiv@quotient,f
  4183     1F89  09A3               	comf	___awdiv@quotient+1,f
  4184     1F8A  0AA2               	incf	___awdiv@quotient,f
  4185     1F8B  1903               	skipnz
  4186     1F8C  0AA3               	incf	___awdiv@quotient+1,f
  4187     1F8D                     l2191:
  4188     1F8D  0823               	movf	___awdiv@quotient+1,w
  4189     1F8E  00F8               	movwf	?___awdiv+1
  4190     1F8F  0822               	movf	___awdiv@quotient,w
  4191     1F90  00F7               	movwf	?___awdiv
  4192     1F91                     l427:
  4193     1F91  0008               	return
  4194     1F92                     __end_of___awdiv:
  4195                           
  4196                           	psect	text5
  4197     1CED                     __ptext5:	
  4198 ;; *************** function _isdigit *****************
  4199 ;; Defined at:
  4200 ;;		line 8 in file "C:\Program Files\Microchip\xc8\v2.40\pic\sources\c90\common\isdigit.c"
  4201 ;; Parameters:    Size  Location     Type
  4202 ;;  c               1    wreg     unsigned char 
  4203 ;; Auto vars:     Size  Location     Type
  4204 ;;  c               1    1[COMMON] unsigned char 
  4205 ;; Return value:  Size  Location     Type
  4206 ;;		None               void
  4207 ;; Registers used:
  4208 ;;		wreg, status,2, status,0
  4209 ;; Tracked objects:
  4210 ;;		On entry : 0/0
  4211 ;;		On exit  : 0/0
  4212 ;;		Unchanged: 0/0
  4213 ;; Data sizes:     COMMON   BANK0   BANK1   BANK3   BANK2
  4214 ;;      Params:         0       0       0       0       0
  4215 ;;      Locals:         2       0       0       0       0
  4216 ;;      Temps:          0       0       0       0       0
  4217 ;;      Totals:         2       0       0       0       0
  4218 ;;Total ram usage:        2 bytes
  4219 ;; Hardware stack levels used: 1
  4220 ;; This function calls:
  4221 ;;		Nothing
  4222 ;; This function is called by:
  4223 ;;		_sprintf
  4224 ;; This function uses a non-reentrant model
  4225 ;;
  4226                           
  4227     1CED                     _isdigit:	
  4228                           ;psect for function _isdigit
  4229                           
  4230                           
  4231                           ;incstack = 0
  4232                           ; Regs used in _isdigit: [wreg+status,2+status,0]
  4233                           ;isdigit@c stored from wreg
  4234     1CED  00F1               	movwf	isdigit@c
  4235     1CEE                     l2683:
  4236     1CEE  01F0               	clrf	_isdigit$605
  4237     1CEF                     l2685:
  4238     1CEF  303A               	movlw	58
  4239     1CF0  0271               	subwf	isdigit@c,w
  4240     1CF1  1803               	skipnc
  4241     1CF2  2CF4               	goto	u4361
  4242     1CF3  2CF5               	goto	u4360
  4243     1CF4                     u4361:
  4244     1CF4  2CFD               	goto	l2691
  4245     1CF5                     u4360:
  4246     1CF5                     l2687:
  4247     1CF5  3030               	movlw	48
  4248     1CF6  0271               	subwf	isdigit@c,w
  4249     1CF7  1C03               	skipc
  4250     1CF8  2CFA               	goto	u4371
  4251     1CF9  2CFB               	goto	u4370
  4252     1CFA                     u4371:
  4253     1CFA  2CFD               	goto	l2691
  4254     1CFB                     u4370:
  4255     1CFB                     l2689:
  4256     1CFB  01F0               	clrf	_isdigit$605
  4257     1CFC  0AF0               	incf	_isdigit$605,f
  4258     1CFD                     l2691:
  4259     1CFD  0C70               	rrf	_isdigit$605,w
  4260     1CFE                     l761:
  4261     1CFE  0008               	return
  4262     1CFF                     __end_of_isdigit:
  4263                           
  4264                           	psect	text6
  4265     139D                     __ptext6:	
  4266 ;; *************** function _fround *****************
  4267 ;; Defined at:
  4268 ;;		line 417 in file "C:\Program Files\Microchip\xc8\v2.40\pic\sources\c90\common\doprnt.c"
  4269 ;; Parameters:    Size  Location     Type
  4270 ;;  prec            1    wreg     unsigned char 
  4271 ;; Auto vars:     Size  Location     Type
  4272 ;;  prec            1   49[BANK0 ] unsigned char 
  4273 ;; Return value:  Size  Location     Type
  4274 ;;                  4   30[BANK0 ] unsigned char 
  4275 ;; Registers used:
  4276 ;;		wreg, fsr0l, fsr0h, status,2, status,0, btemp+1, pclath, cstack
  4277 ;; Tracked objects:
  4278 ;;		On entry : 0/0
  4279 ;;		On exit  : 0/0
  4280 ;;		Unchanged: 0/0
  4281 ;; Data sizes:     COMMON   BANK0   BANK1   BANK3   BANK2
  4282 ;;      Params:         0       4       0       0       0
  4283 ;;      Locals:         0       9       0       0       0
  4284 ;;      Temps:          0       7       0       0       0
  4285 ;;      Totals:         0      20       0       0       0
  4286 ;;Total ram usage:       20 bytes
  4287 ;; Hardware stack levels used: 1
  4288 ;; Hardware stack levels required when called: 2
  4289 ;; This function calls:
  4290 ;;		___flmul
  4291 ;;		___lwdiv
  4292 ;;		___lwmod
  4293 ;; This function is called by:
  4294 ;;		_sprintf
  4295 ;; This function uses a non-reentrant model
  4296 ;;
  4297                           
  4298     139D                     _fround:	
  4299                           ;psect for function _fround
  4300                           
  4301                           
  4302                           ;incstack = 0
  4303                           ; Regs used in _fround: [wreg-fsr0h+status,2+status,0+btemp+1+pclath+cstack]
  4304                           ;fround@prec stored from wreg
  4305     139D  1283               	bcf	3,5	;RP0=0, select bank0
  4306     139E  1303               	bcf	3,6	;RP1=0, select bank0
  4307     139F  00D1               	movwf	fround@prec
  4308     13A0                     l2625:
  4309                           
  4310                           ;C:\Program Files\Microchip\xc8\v2.40\pic\sources\c90\common\doprnt.c: 417: fround(unsig
      +                          ned char prec);C:\Program Files\Microchip\xc8\v2.40\pic\sources\c90\common\doprnt.c: 418
      +                          : {;C:\Program Files\Microchip\xc8\v2.40\pic\sources\c90\common\doprnt.c: 421:  if(prec>
      +                          =110)
  4311     13A0  306E               	movlw	110
  4312     13A1  0251               	subwf	fround@prec,w
  4313     13A2  1C03               	skipc
  4314     13A3  2BA5               	goto	u4111
  4315     13A4  2BA6               	goto	u4110
  4316     13A5                     u4111:
  4317     13A5  2CB3               	goto	l2633
  4318     13A6                     u4110:
  4319     13A6                     l2627:
  4320                           
  4321                           ;C:\Program Files\Microchip\xc8\v2.40\pic\sources\c90\common\doprnt.c: 422:   return 0.5
      +                           * _npowers_[prec/100U+18U] * _npowers_[(prec%100U)/10U+9U] * _npowers_[prec%10U];
  4322     13A6  303F               	movlw	63
  4323     13A7  00A7               	movwf	___flmul@b+3
  4324     13A8  3000               	movlw	0
  4325     13A9  00A6               	movwf	___flmul@b+2
  4326     13AA  3000               	movlw	0
  4327     13AB  00A5               	movwf	___flmul@b+1
  4328     13AC  3000               	movlw	0
  4329     13AD  00A4               	movwf	___flmul@b
  4330     13AE  3064               	movlw	100
  4331     13AF  00F6               	movwf	___lwdiv@divisor
  4332     13B0  3000               	movlw	0
  4333     13B1  00F7               	movwf	___lwdiv@divisor+1
  4334     13B2  0851               	movf	fround@prec,w
  4335     13B3  00C2               	movwf	??_fround
  4336     13B4  01C3               	clrf	??_fround+1
  4337     13B5  0842               	movf	??_fround,w
  4338     13B6  00F8               	movwf	___lwdiv@dividend
  4339     13B7  0843               	movf	??_fround+1,w
  4340     13B8  00F9               	movwf	___lwdiv@dividend+1
  4341     13B9  160A  158A  2584  160A  118A  	fcall	___lwdiv
  4342     13BE  0876               	movf	?___lwdiv,w
  4343     13BF  1283               	bcf	3,5	;RP0=0, select bank0
  4344     13C0  1303               	bcf	3,6	;RP1=0, select bank0
  4345     13C1  00C4               	movwf	??_fround+2
  4346     13C2  3001               	movlw	1
  4347     13C3                     u4125:
  4348     13C3  1003               	clrc
  4349     13C4  0DC4               	rlf	??_fround+2,f
  4350     13C5  3EFF               	addlw	-1
  4351     13C6  1D03               	skipz
  4352     13C7  2BC3               	goto	u4125
  4353     13C8  1003               	clrc
  4354     13C9  0D44               	rlf	??_fround+2,w
  4355     13CA  3E7D               	addlw	low (((__npowers_-__stringbase)| (0+32768)+72))
  4356     13CB  0084               	movwf	4
  4357     13CC  160A  118A  2000  160A  118A  	fcall	stringdir
  4358     13D1  00C5               	movwf	??_fround+3
  4359     13D2  160A  118A  2000  160A  118A  	fcall	stringdir
  4360     13D7  00C6               	movwf	??_fround+4
  4361     13D8  160A  118A  2000  160A  118A  	fcall	stringdir
  4362     13DD  00C7               	movwf	??_fround+5
  4363     13DE  160A  118A  2000  160A  118A  	fcall	stringdir
  4364     13E3  00C8               	movwf	??_fround+6
  4365     13E4  0848               	movf	??_fround+6,w
  4366     13E5  00AB               	movwf	___flmul@a+3
  4367     13E6  0847               	movf	??_fround+5,w
  4368     13E7  00AA               	movwf	___flmul@a+2
  4369     13E8  0846               	movf	??_fround+4,w
  4370     13E9  00A9               	movwf	___flmul@a+1
  4371     13EA  0845               	movf	??_fround+3,w
  4372     13EB  00A8               	movwf	___flmul@a
  4373     13EC  120A  158A  215C  160A  118A  	fcall	___flmul
  4374     13F1  1283               	bcf	3,5	;RP0=0, select bank0
  4375     13F2  1303               	bcf	3,6	;RP1=0, select bank0
  4376     13F3  0827               	movf	?___flmul+3,w
  4377     13F4  00D0               	movwf	_fround$773+3
  4378     13F5  0826               	movf	?___flmul+2,w
  4379     13F6  00CF               	movwf	_fround$773+2
  4380     13F7  0825               	movf	?___flmul+1,w
  4381     13F8  00CE               	movwf	_fround$773+1
  4382     13F9  0824               	movf	?___flmul,w
  4383     13FA  00CD               	movwf	_fround$773
  4384                           
  4385                           ;C:\Program Files\Microchip\xc8\v2.40\pic\sources\c90\common\doprnt.c: 422:   return 0.5
      +                           * _npowers_[prec/100U+18U] * _npowers_[(prec%100U)/10U+9U] * _npowers_[prec%10U];
  4386     13FB  300A               	movlw	10
  4387     13FC  00F6               	movwf	___lwdiv@divisor
  4388     13FD  3000               	movlw	0
  4389     13FE  00F7               	movwf	___lwdiv@divisor+1
  4390     13FF  0851               	movf	fround@prec,w
  4391     1400  00C2               	movwf	??_fround
  4392     1401  01C3               	clrf	??_fround+1
  4393     1402  0842               	movf	??_fround,w
  4394     1403  00F2               	movwf	___lwmod@dividend
  4395     1404  0843               	movf	??_fround+1,w
  4396     1405  00F3               	movwf	___lwmod@dividend+1
  4397     1406  3064               	movlw	100
  4398     1407  00F0               	movwf	___lwmod@divisor
  4399     1408  3000               	movlw	0
  4400     1409  00F1               	movwf	___lwmod@divisor+1
  4401     140A  120A  118A  2004  160A  118A  	fcall	___lwmod
  4402     140F  0871               	movf	?___lwmod+1,w
  4403     1410  00F9               	movwf	___lwdiv@dividend+1
  4404     1411  0870               	movf	?___lwmod,w
  4405     1412  00F8               	movwf	___lwdiv@dividend
  4406     1413  160A  158A  2584  160A  118A  	fcall	___lwdiv
  4407     1418  0876               	movf	?___lwdiv,w
  4408     1419  1283               	bcf	3,5	;RP0=0, select bank0
  4409     141A  1303               	bcf	3,6	;RP1=0, select bank0
  4410     141B  00C4               	movwf	??_fround+2
  4411     141C  3001               	movlw	1
  4412     141D                     u4135:
  4413     141D  1003               	clrc
  4414     141E  0DC4               	rlf	??_fround+2,f
  4415     141F  3EFF               	addlw	-1
  4416     1420  1D03               	skipz
  4417     1421  2C1D               	goto	u4135
  4418     1422  1003               	clrc
  4419     1423  0D44               	rlf	??_fround+2,w
  4420     1424  3E59               	addlw	low (((__npowers_-__stringbase)| (0+32768)+36))
  4421     1425  0084               	movwf	4
  4422     1426  160A  118A  2000  160A  118A  	fcall	stringdir
  4423     142B  00C5               	movwf	??_fround+3
  4424     142C  160A  118A  2000  160A  118A  	fcall	stringdir
  4425     1431  00C6               	movwf	??_fround+4
  4426     1432  160A  118A  2000  160A  118A  	fcall	stringdir
  4427     1437  00C7               	movwf	??_fround+5
  4428     1438  160A  118A  2000  160A  118A  	fcall	stringdir
  4429     143D  00C8               	movwf	??_fround+6
  4430     143E  0848               	movf	??_fround+6,w
  4431     143F  00A7               	movwf	___flmul@b+3
  4432     1440  0847               	movf	??_fround+5,w
  4433     1441  00A6               	movwf	___flmul@b+2
  4434     1442  0846               	movf	??_fround+4,w
  4435     1443  00A5               	movwf	___flmul@b+1
  4436     1444  0845               	movf	??_fround+3,w
  4437     1445  00A4               	movwf	___flmul@b
  4438     1446  0850               	movf	_fround$773+3,w
  4439     1447  00AB               	movwf	___flmul@a+3
  4440     1448  084F               	movf	_fround$773+2,w
  4441     1449  00AA               	movwf	___flmul@a+2
  4442     144A  084E               	movf	_fround$773+1,w
  4443     144B  00A9               	movwf	___flmul@a+1
  4444     144C  084D               	movf	_fround$773,w
  4445     144D  00A8               	movwf	___flmul@a
  4446     144E  120A  158A  215C  160A  118A  	fcall	___flmul
  4447     1453  1283               	bcf	3,5	;RP0=0, select bank0
  4448     1454  1303               	bcf	3,6	;RP1=0, select bank0
  4449     1455  0827               	movf	?___flmul+3,w
  4450     1456  00CC               	movwf	_fround$774+3
  4451     1457  0826               	movf	?___flmul+2,w
  4452     1458  00CB               	movwf	_fround$774+2
  4453     1459  0825               	movf	?___flmul+1,w
  4454     145A  00CA               	movwf	_fround$774+1
  4455     145B  0824               	movf	?___flmul,w
  4456     145C  00C9               	movwf	_fround$774
  4457                           
  4458                           ;C:\Program Files\Microchip\xc8\v2.40\pic\sources\c90\common\doprnt.c: 422:   return 0.5
      +                           * _npowers_[prec/100U+18U] * _npowers_[(prec%100U)/10U+9U] * _npowers_[prec%10U];
  4459     145D  300A               	movlw	10
  4460     145E  00F0               	movwf	___lwmod@divisor
  4461     145F  3000               	movlw	0
  4462     1460  00F1               	movwf	___lwmod@divisor+1
  4463     1461  0851               	movf	fround@prec,w
  4464     1462  00C2               	movwf	??_fround
  4465     1463  01C3               	clrf	??_fround+1
  4466     1464  0842               	movf	??_fround,w
  4467     1465  00F2               	movwf	___lwmod@dividend
  4468     1466  0843               	movf	??_fround+1,w
  4469     1467  00F3               	movwf	___lwmod@dividend+1
  4470     1468  120A  118A  2004  160A  118A  	fcall	___lwmod
  4471     146D  0870               	movf	?___lwmod,w
  4472     146E  1283               	bcf	3,5	;RP0=0, select bank0
  4473     146F  1303               	bcf	3,6	;RP1=0, select bank0
  4474     1470  00C4               	movwf	??_fround+2
  4475     1471  3001               	movlw	1
  4476     1472                     u4145:
  4477     1472  1003               	clrc
  4478     1473  0DC4               	rlf	??_fround+2,f
  4479     1474  3EFF               	addlw	-1
  4480     1475  1D03               	skipz
  4481     1476  2C72               	goto	u4145
  4482     1477  1003               	clrc
  4483     1478  0D44               	rlf	??_fround+2,w
  4484     1479  3E35               	addlw	low ((__npowers_-__stringbase)| (0+32768))
  4485     147A  0084               	movwf	4
  4486     147B  160A  118A  2000  160A  118A  	fcall	stringdir
  4487     1480  00C5               	movwf	??_fround+3
  4488     1481  160A  118A  2000  160A  118A  	fcall	stringdir
  4489     1486  00C6               	movwf	??_fround+4
  4490     1487  160A  118A  2000  160A  118A  	fcall	stringdir
  4491     148C  00C7               	movwf	??_fround+5
  4492     148D  160A  118A  2000  160A  118A  	fcall	stringdir
  4493     1492  00C8               	movwf	??_fround+6
  4494     1493  0848               	movf	??_fround+6,w
  4495     1494  00A7               	movwf	___flmul@b+3
  4496     1495  0847               	movf	??_fround+5,w
  4497     1496  00A6               	movwf	___flmul@b+2
  4498     1497  0846               	movf	??_fround+4,w
  4499     1498  00A5               	movwf	___flmul@b+1
  4500     1499  0845               	movf	??_fround+3,w
  4501     149A  00A4               	movwf	___flmul@b
  4502     149B  084C               	movf	_fround$774+3,w
  4503     149C  00AB               	movwf	___flmul@a+3
  4504     149D  084B               	movf	_fround$774+2,w
  4505     149E  00AA               	movwf	___flmul@a+2
  4506     149F  084A               	movf	_fround$774+1,w
  4507     14A0  00A9               	movwf	___flmul@a+1
  4508     14A1  0849               	movf	_fround$774,w
  4509     14A2  00A8               	movwf	___flmul@a
  4510     14A3  120A  158A  215C  160A  118A  	fcall	___flmul
  4511     14A8  1283               	bcf	3,5	;RP0=0, select bank0
  4512     14A9  1303               	bcf	3,6	;RP1=0, select bank0
  4513     14AA  0827               	movf	?___flmul+3,w
  4514     14AB  00C1               	movwf	?_fround+3
  4515     14AC  0826               	movf	?___flmul+2,w
  4516     14AD  00C0               	movwf	?_fround+2
  4517     14AE  0825               	movf	?___flmul+1,w
  4518     14AF  00BF               	movwf	?_fround+1
  4519     14B0  0824               	movf	?___flmul,w
  4520     14B1  00BE               	movwf	?_fround
  4521     14B2  2DA7               	goto	l197
  4522     14B3                     l2633:
  4523     14B3  300B               	movlw	11
  4524     14B4  0251               	subwf	fround@prec,w
  4525     14B5  1C03               	skipc
  4526     14B6  2CB8               	goto	u4151
  4527     14B7  2CB9               	goto	u4150
  4528     14B8                     u4151:
  4529     14B8  2D64               	goto	l2639
  4530     14B9                     u4150:
  4531     14B9                     l2635:
  4532                           
  4533                           ;C:\Program Files\Microchip\xc8\v2.40\pic\sources\c90\common\doprnt.c: 424:   return 0.5
      +                           * _npowers_[prec/10U+9U] * _npowers_[prec%10U];
  4534     14B9  303F               	movlw	63
  4535     14BA  00A7               	movwf	___flmul@b+3
  4536     14BB  3000               	movlw	0
  4537     14BC  00A6               	movwf	___flmul@b+2
  4538     14BD  3000               	movlw	0
  4539     14BE  00A5               	movwf	___flmul@b+1
  4540     14BF  3000               	movlw	0
  4541     14C0  00A4               	movwf	___flmul@b
  4542     14C1  300A               	movlw	10
  4543     14C2  00F6               	movwf	___lwdiv@divisor
  4544     14C3  3000               	movlw	0
  4545     14C4  00F7               	movwf	___lwdiv@divisor+1
  4546     14C5  0851               	movf	fround@prec,w
  4547     14C6  00C2               	movwf	??_fround
  4548     14C7  01C3               	clrf	??_fround+1
  4549     14C8  0842               	movf	??_fround,w
  4550     14C9  00F8               	movwf	___lwdiv@dividend
  4551     14CA  0843               	movf	??_fround+1,w
  4552     14CB  00F9               	movwf	___lwdiv@dividend+1
  4553     14CC  160A  158A  2584  160A  118A  	fcall	___lwdiv
  4554     14D1  0876               	movf	?___lwdiv,w
  4555     14D2  1283               	bcf	3,5	;RP0=0, select bank0
  4556     14D3  1303               	bcf	3,6	;RP1=0, select bank0
  4557     14D4  00C4               	movwf	??_fround+2
  4558     14D5  3001               	movlw	1
  4559     14D6                     u4165:
  4560     14D6  1003               	clrc
  4561     14D7  0DC4               	rlf	??_fround+2,f
  4562     14D8  3EFF               	addlw	-1
  4563     14D9  1D03               	skipz
  4564     14DA  2CD6               	goto	u4165
  4565     14DB  1003               	clrc
  4566     14DC  0D44               	rlf	??_fround+2,w
  4567     14DD  3E59               	addlw	low (((__npowers_-__stringbase)| (0+32768)+36))
  4568     14DE  0084               	movwf	4
  4569     14DF  160A  118A  2000  160A  118A  	fcall	stringdir
  4570     14E4  00C5               	movwf	??_fround+3
  4571     14E5  160A  118A  2000  160A  118A  	fcall	stringdir
  4572     14EA  00C6               	movwf	??_fround+4
  4573     14EB  160A  118A  2000  160A  118A  	fcall	stringdir
  4574     14F0  00C7               	movwf	??_fround+5
  4575     14F1  160A  118A  2000  160A  118A  	fcall	stringdir
  4576     14F6  00C8               	movwf	??_fround+6
  4577     14F7  0848               	movf	??_fround+6,w
  4578     14F8  00AB               	movwf	___flmul@a+3
  4579     14F9  0847               	movf	??_fround+5,w
  4580     14FA  00AA               	movwf	___flmul@a+2
  4581     14FB  0846               	movf	??_fround+4,w
  4582     14FC  00A9               	movwf	___flmul@a+1
  4583     14FD  0845               	movf	??_fround+3,w
  4584     14FE  00A8               	movwf	___flmul@a
  4585     14FF  120A  158A  215C  160A  118A  	fcall	___flmul
  4586     1504  1283               	bcf	3,5	;RP0=0, select bank0
  4587     1505  1303               	bcf	3,6	;RP1=0, select bank0
  4588     1506  0827               	movf	?___flmul+3,w
  4589     1507  00D0               	movwf	_fround$773+3
  4590     1508  0826               	movf	?___flmul+2,w
  4591     1509  00CF               	movwf	_fround$773+2
  4592     150A  0825               	movf	?___flmul+1,w
  4593     150B  00CE               	movwf	_fround$773+1
  4594     150C  0824               	movf	?___flmul,w
  4595     150D  00CD               	movwf	_fround$773
  4596                           
  4597                           ;C:\Program Files\Microchip\xc8\v2.40\pic\sources\c90\common\doprnt.c: 424:   return 0.5
      +                           * _npowers_[prec/10U+9U] * _npowers_[prec%10U];
  4598     150E  300A               	movlw	10
  4599     150F  00F0               	movwf	___lwmod@divisor
  4600     1510  3000               	movlw	0
  4601     1511  00F1               	movwf	___lwmod@divisor+1
  4602     1512  0851               	movf	fround@prec,w
  4603     1513  00C2               	movwf	??_fround
  4604     1514  01C3               	clrf	??_fround+1
  4605     1515  0842               	movf	??_fround,w
  4606     1516  00F2               	movwf	___lwmod@dividend
  4607     1517  0843               	movf	??_fround+1,w
  4608     1518  00F3               	movwf	___lwmod@dividend+1
  4609     1519  120A  118A  2004  160A  118A  	fcall	___lwmod
  4610     151E  0870               	movf	?___lwmod,w
  4611     151F  1283               	bcf	3,5	;RP0=0, select bank0
  4612     1520  1303               	bcf	3,6	;RP1=0, select bank0
  4613     1521  00C4               	movwf	??_fround+2
  4614     1522  3001               	movlw	1
  4615     1523                     u4175:
  4616     1523  1003               	clrc
  4617     1524  0DC4               	rlf	??_fround+2,f
  4618     1525  3EFF               	addlw	-1
  4619     1526  1D03               	skipz
  4620     1527  2D23               	goto	u4175
  4621     1528  1003               	clrc
  4622     1529  0D44               	rlf	??_fround+2,w
  4623     152A  3E35               	addlw	low ((__npowers_-__stringbase)| (0+32768))
  4624     152B  0084               	movwf	4
  4625     152C  160A  118A  2000  160A  118A  	fcall	stringdir
  4626     1531  00C5               	movwf	??_fround+3
  4627     1532  160A  118A  2000  160A  118A  	fcall	stringdir
  4628     1537  00C6               	movwf	??_fround+4
  4629     1538  160A  118A  2000  160A  118A  	fcall	stringdir
  4630     153D  00C7               	movwf	??_fround+5
  4631     153E  160A  118A  2000  160A  118A  	fcall	stringdir
  4632     1543  00C8               	movwf	??_fround+6
  4633     1544  0848               	movf	??_fround+6,w
  4634     1545  00A7               	movwf	___flmul@b+3
  4635     1546  0847               	movf	??_fround+5,w
  4636     1547  00A6               	movwf	___flmul@b+2
  4637     1548  0846               	movf	??_fround+4,w
  4638     1549  00A5               	movwf	___flmul@b+1
  4639     154A  0845               	movf	??_fround+3,w
  4640     154B  00A4               	movwf	___flmul@b
  4641     154C  0850               	movf	_fround$773+3,w
  4642     154D  00AB               	movwf	___flmul@a+3
  4643     154E  084F               	movf	_fround$773+2,w
  4644     154F  00AA               	movwf	___flmul@a+2
  4645     1550  084E               	movf	_fround$773+1,w
  4646     1551  00A9               	movwf	___flmul@a+1
  4647     1552  084D               	movf	_fround$773,w
  4648     1553  00A8               	movwf	___flmul@a
  4649     1554  120A  158A  215C  160A  118A  	fcall	___flmul
  4650     1559  1283               	bcf	3,5	;RP0=0, select bank0
  4651     155A  1303               	bcf	3,6	;RP1=0, select bank0
  4652     155B  0827               	movf	?___flmul+3,w
  4653     155C  00C1               	movwf	?_fround+3
  4654     155D  0826               	movf	?___flmul+2,w
  4655     155E  00C0               	movwf	?_fround+2
  4656     155F  0825               	movf	?___flmul+1,w
  4657     1560  00BF               	movwf	?_fround+1
  4658     1561  0824               	movf	?___flmul,w
  4659     1562  00BE               	movwf	?_fround
  4660     1563  2DA7               	goto	l197
  4661     1564                     l2639:
  4662                           
  4663                           ;C:\Program Files\Microchip\xc8\v2.40\pic\sources\c90\common\doprnt.c: 425:  return 0.5 
      +                          * _npowers_[prec];
  4664     1564  303F               	movlw	63
  4665     1565  00A7               	movwf	___flmul@b+3
  4666     1566  3000               	movlw	0
  4667     1567  00A6               	movwf	___flmul@b+2
  4668     1568  3000               	movlw	0
  4669     1569  00A5               	movwf	___flmul@b+1
  4670     156A  3000               	movlw	0
  4671     156B  00A4               	movwf	___flmul@b
  4672     156C  0851               	movf	fround@prec,w
  4673     156D  00C2               	movwf	??_fround
  4674     156E  3001               	movlw	1
  4675     156F                     u4185:
  4676     156F  1003               	clrc
  4677     1570  0DC2               	rlf	??_fround,f
  4678     1571  3EFF               	addlw	-1
  4679     1572  1D03               	skipz
  4680     1573  2D6F               	goto	u4185
  4681     1574  1003               	clrc
  4682     1575  0D42               	rlf	??_fround,w
  4683     1576  3E35               	addlw	low ((__npowers_-__stringbase)| (0+32768))
  4684     1577  0084               	movwf	4
  4685     1578  160A  118A  2000  160A  118A  	fcall	stringdir
  4686     157D  00C3               	movwf	??_fround+1
  4687     157E  160A  118A  2000  160A  118A  	fcall	stringdir
  4688     1583  00C4               	movwf	??_fround+2
  4689     1584  160A  118A  2000  160A  118A  	fcall	stringdir
  4690     1589  00C5               	movwf	??_fround+3
  4691     158A  160A  118A  2000  160A  118A  	fcall	stringdir
  4692     158F  00C6               	movwf	??_fround+4
  4693     1590  0846               	movf	??_fround+4,w
  4694     1591  00AB               	movwf	___flmul@a+3
  4695     1592  0845               	movf	??_fround+3,w
  4696     1593  00AA               	movwf	___flmul@a+2
  4697     1594  0844               	movf	??_fround+2,w
  4698     1595  00A9               	movwf	___flmul@a+1
  4699     1596  0843               	movf	??_fround+1,w
  4700     1597  00A8               	movwf	___flmul@a
  4701     1598  120A  158A  215C  160A  118A  	fcall	___flmul
  4702     159D  1283               	bcf	3,5	;RP0=0, select bank0
  4703     159E  1303               	bcf	3,6	;RP1=0, select bank0
  4704     159F  0827               	movf	?___flmul+3,w
  4705     15A0  00C1               	movwf	?_fround+3
  4706     15A1  0826               	movf	?___flmul+2,w
  4707     15A2  00C0               	movwf	?_fround+2
  4708     15A3  0825               	movf	?___flmul+1,w
  4709     15A4  00BF               	movwf	?_fround+1
  4710     15A5  0824               	movf	?___flmul,w
  4711     15A6  00BE               	movwf	?_fround
  4712     15A7                     l197:
  4713     15A7  0008               	return
  4714     15A8                     __end_of_fround:
  4715                           
  4716                           	psect	text7
  4717     0004                     __ptext7:	
  4718 ;; *************** function ___lwmod *****************
  4719 ;; Defined at:
  4720 ;;		line 5 in file "C:\Program Files\Microchip\xc8\v2.40\pic\sources\c90\common\lwmod.c"
  4721 ;; Parameters:    Size  Location     Type
  4722 ;;  divisor         2    0[COMMON] unsigned int 
  4723 ;;  dividend        2    2[COMMON] unsigned int 
  4724 ;; Auto vars:     Size  Location     Type
  4725 ;;  counter         1    5[COMMON] unsigned char 
  4726 ;; Return value:  Size  Location     Type
  4727 ;;                  2    0[COMMON] unsigned int 
  4728 ;; Registers used:
  4729 ;;		wreg, status,2, status,0
  4730 ;; Tracked objects:
  4731 ;;		On entry : 0/0
  4732 ;;		On exit  : 0/0
  4733 ;;		Unchanged: 0/0
  4734 ;; Data sizes:     COMMON   BANK0   BANK1   BANK3   BANK2
  4735 ;;      Params:         4       0       0       0       0
  4736 ;;      Locals:         1       0       0       0       0
  4737 ;;      Temps:          1       0       0       0       0
  4738 ;;      Totals:         6       0       0       0       0
  4739 ;;Total ram usage:        6 bytes
  4740 ;; Hardware stack levels used: 1
  4741 ;; This function calls:
  4742 ;;		Nothing
  4743 ;; This function is called by:
  4744 ;;		_fround
  4745 ;; This function uses a non-reentrant model
  4746 ;;
  4747                           
  4748     0004                     ___lwmod:	
  4749                           ;psect for function ___lwmod
  4750                           
  4751     0004                     l2259:	
  4752                           ;incstack = 0
  4753                           ; Regs used in ___lwmod: [wreg+status,2+status,0]
  4754                           
  4755     0004  0870               	movf	___lwmod@divisor,w
  4756     0005  0471               	iorwf	___lwmod@divisor+1,w
  4757     0006  1903               	btfsc	3,2
  4758     0007  2809               	goto	u3211
  4759     0008  280A               	goto	u3210
  4760     0009                     u3211:
  4761     0009  2839               	goto	l2277
  4762     000A                     u3210:
  4763     000A                     l2261:
  4764     000A  01F5               	clrf	___lwmod@counter
  4765     000B  0AF5               	incf	___lwmod@counter,f
  4766     000C  2818               	goto	l2267
  4767     000D                     l2263:
  4768     000D  3001               	movlw	1
  4769     000E                     u3225:
  4770     000E  1003               	clrc
  4771     000F  0DF0               	rlf	___lwmod@divisor,f
  4772     0010  0DF1               	rlf	___lwmod@divisor+1,f
  4773     0011  3EFF               	addlw	-1
  4774     0012  1D03               	skipz
  4775     0013  280E               	goto	u3225
  4776     0014                     l2265:
  4777     0014  3001               	movlw	1
  4778     0015  00F4               	movwf	??___lwmod
  4779     0016  0874               	movf	??___lwmod,w
  4780     0017  07F5               	addwf	___lwmod@counter,f
  4781     0018                     l2267:
  4782     0018  1FF1               	btfss	___lwmod@divisor+1,7
  4783     0019  281B               	goto	u3231
  4784     001A  281C               	goto	u3230
  4785     001B                     u3231:
  4786     001B  280D               	goto	l2263
  4787     001C                     u3230:
  4788     001C                     l2269:
  4789     001C  0871               	movf	___lwmod@divisor+1,w
  4790     001D  0273               	subwf	___lwmod@dividend+1,w
  4791     001E  1D03               	skipz
  4792     001F  2822               	goto	u3245
  4793     0020  0870               	movf	___lwmod@divisor,w
  4794     0021  0272               	subwf	___lwmod@dividend,w
  4795     0022                     u3245:
  4796     0022  1C03               	skipc
  4797     0023  2825               	goto	u3241
  4798     0024  2826               	goto	u3240
  4799     0025                     u3241:
  4800     0025  282C               	goto	l2273
  4801     0026                     u3240:
  4802     0026                     l2271:
  4803     0026  0870               	movf	___lwmod@divisor,w
  4804     0027  02F2               	subwf	___lwmod@dividend,f
  4805     0028  0871               	movf	___lwmod@divisor+1,w
  4806     0029  1C03               	skipc
  4807     002A  03F3               	decf	___lwmod@dividend+1,f
  4808     002B  02F3               	subwf	___lwmod@dividend+1,f
  4809     002C                     l2273:
  4810     002C  3001               	movlw	1
  4811     002D                     u3255:
  4812     002D  1003               	clrc
  4813     002E  0CF1               	rrf	___lwmod@divisor+1,f
  4814     002F  0CF0               	rrf	___lwmod@divisor,f
  4815     0030  3EFF               	addlw	-1
  4816     0031  1D03               	skipz
  4817     0032  282D               	goto	u3255
  4818     0033                     l2275:
  4819     0033  3001               	movlw	1
  4820     0034  02F5               	subwf	___lwmod@counter,f
  4821     0035  1D03               	btfss	3,2
  4822     0036  2838               	goto	u3261
  4823     0037  2839               	goto	u3260
  4824     0038                     u3261:
  4825     0038  281C               	goto	l2269
  4826     0039                     u3260:
  4827     0039                     l2277:
  4828     0039  0873               	movf	___lwmod@dividend+1,w
  4829     003A  00F1               	movwf	?___lwmod+1
  4830     003B  0872               	movf	___lwmod@dividend,w
  4831     003C  00F0               	movwf	?___lwmod
  4832     003D                     l590:
  4833     003D  0008               	return
  4834     003E                     __end_of___lwmod:
  4835                           
  4836                           	psect	text8
  4837     1D84                     __ptext8:	
  4838 ;; *************** function ___lwdiv *****************
  4839 ;; Defined at:
  4840 ;;		line 5 in file "C:\Program Files\Microchip\xc8\v2.40\pic\sources\c90\common\lwdiv.c"
  4841 ;; Parameters:    Size  Location     Type
  4842 ;;  divisor         2    6[COMMON] unsigned int 
  4843 ;;  dividend        2    8[COMMON] unsigned int 
  4844 ;; Auto vars:     Size  Location     Type
  4845 ;;  quotient        2   11[COMMON] unsigned int 
  4846 ;;  counter         1   13[COMMON] unsigned char 
  4847 ;; Return value:  Size  Location     Type
  4848 ;;                  2    6[COMMON] unsigned int 
  4849 ;; Registers used:
  4850 ;;		wreg, status,2, status,0
  4851 ;; Tracked objects:
  4852 ;;		On entry : 0/0
  4853 ;;		On exit  : 0/0
  4854 ;;		Unchanged: 0/0
  4855 ;; Data sizes:     COMMON   BANK0   BANK1   BANK3   BANK2
  4856 ;;      Params:         4       0       0       0       0
  4857 ;;      Locals:         3       0       0       0       0
  4858 ;;      Temps:          1       0       0       0       0
  4859 ;;      Totals:         8       0       0       0       0
  4860 ;;Total ram usage:        8 bytes
  4861 ;; Hardware stack levels used: 1
  4862 ;; This function calls:
  4863 ;;		Nothing
  4864 ;; This function is called by:
  4865 ;;		_fround
  4866 ;; This function uses a non-reentrant model
  4867 ;;
  4868                           
  4869     1D84                     ___lwdiv:	
  4870                           ;psect for function ___lwdiv
  4871                           
  4872     1D84                     l2233:	
  4873                           ;incstack = 0
  4874                           ; Regs used in ___lwdiv: [wreg+status,2+status,0]
  4875                           
  4876     1D84  01FB               	clrf	___lwdiv@quotient
  4877     1D85  01FC               	clrf	___lwdiv@quotient+1
  4878     1D86                     l2235:
  4879     1D86  0876               	movf	___lwdiv@divisor,w
  4880     1D87  0477               	iorwf	___lwdiv@divisor+1,w
  4881     1D88  1903               	btfsc	3,2
  4882     1D89  2D8B               	goto	u3141
  4883     1D8A  2D8C               	goto	u3140
  4884     1D8B                     u3141:
  4885     1D8B  2DC3               	goto	l2255
  4886     1D8C                     u3140:
  4887     1D8C                     l2237:
  4888     1D8C  01FD               	clrf	___lwdiv@counter
  4889     1D8D  0AFD               	incf	___lwdiv@counter,f
  4890     1D8E  2D9A               	goto	l2243
  4891     1D8F                     l2239:
  4892     1D8F  3001               	movlw	1
  4893     1D90                     u3155:
  4894     1D90  1003               	clrc
  4895     1D91  0DF6               	rlf	___lwdiv@divisor,f
  4896     1D92  0DF7               	rlf	___lwdiv@divisor+1,f
  4897     1D93  3EFF               	addlw	-1
  4898     1D94  1D03               	skipz
  4899     1D95  2D90               	goto	u3155
  4900     1D96                     l2241:
  4901     1D96  3001               	movlw	1
  4902     1D97  00FA               	movwf	??___lwdiv
  4903     1D98  087A               	movf	??___lwdiv,w
  4904     1D99  07FD               	addwf	___lwdiv@counter,f
  4905     1D9A                     l2243:
  4906     1D9A  1FF7               	btfss	___lwdiv@divisor+1,7
  4907     1D9B  2D9D               	goto	u3161
  4908     1D9C  2D9E               	goto	u3160
  4909     1D9D                     u3161:
  4910     1D9D  2D8F               	goto	l2239
  4911     1D9E                     u3160:
  4912     1D9E                     l2245:
  4913     1D9E  3001               	movlw	1
  4914     1D9F                     u3175:
  4915     1D9F  1003               	clrc
  4916     1DA0  0DFB               	rlf	___lwdiv@quotient,f
  4917     1DA1  0DFC               	rlf	___lwdiv@quotient+1,f
  4918     1DA2  3EFF               	addlw	-1
  4919     1DA3  1D03               	skipz
  4920     1DA4  2D9F               	goto	u3175
  4921     1DA5  0877               	movf	___lwdiv@divisor+1,w
  4922     1DA6  0279               	subwf	___lwdiv@dividend+1,w
  4923     1DA7  1D03               	skipz
  4924     1DA8  2DAB               	goto	u3185
  4925     1DA9  0876               	movf	___lwdiv@divisor,w
  4926     1DAA  0278               	subwf	___lwdiv@dividend,w
  4927     1DAB                     u3185:
  4928     1DAB  1C03               	skipc
  4929     1DAC  2DAE               	goto	u3181
  4930     1DAD  2DAF               	goto	u3180
  4931     1DAE                     u3181:
  4932     1DAE  2DB6               	goto	l2251
  4933     1DAF                     u3180:
  4934     1DAF                     l2247:
  4935     1DAF  0876               	movf	___lwdiv@divisor,w
  4936     1DB0  02F8               	subwf	___lwdiv@dividend,f
  4937     1DB1  0877               	movf	___lwdiv@divisor+1,w
  4938     1DB2  1C03               	skipc
  4939     1DB3  03F9               	decf	___lwdiv@dividend+1,f
  4940     1DB4  02F9               	subwf	___lwdiv@dividend+1,f
  4941     1DB5                     l2249:
  4942     1DB5  147B               	bsf	___lwdiv@quotient,0
  4943     1DB6                     l2251:
  4944     1DB6  3001               	movlw	1
  4945     1DB7                     u3195:
  4946     1DB7  1003               	clrc
  4947     1DB8  0CF7               	rrf	___lwdiv@divisor+1,f
  4948     1DB9  0CF6               	rrf	___lwdiv@divisor,f
  4949     1DBA  3EFF               	addlw	-1
  4950     1DBB  1D03               	skipz
  4951     1DBC  2DB7               	goto	u3195
  4952     1DBD                     l2253:
  4953     1DBD  3001               	movlw	1
  4954     1DBE  02FD               	subwf	___lwdiv@counter,f
  4955     1DBF  1D03               	btfss	3,2
  4956     1DC0  2DC2               	goto	u3201
  4957     1DC1  2DC3               	goto	u3200
  4958     1DC2                     u3201:
  4959     1DC2  2D9E               	goto	l2245
  4960     1DC3                     u3200:
  4961     1DC3                     l2255:
  4962     1DC3  087C               	movf	___lwdiv@quotient+1,w
  4963     1DC4  00F7               	movwf	?___lwdiv+1
  4964     1DC5  087B               	movf	___lwdiv@quotient,w
  4965     1DC6  00F6               	movwf	?___lwdiv
  4966     1DC7                     l580:
  4967     1DC7  0008               	return
  4968     1DC8                     __end_of___lwdiv:
  4969                           
  4970                           	psect	text9
  4971     08A5                     __ptext9:	
  4972 ;; *************** function __tdiv_to_l_ *****************
  4973 ;; Defined at:
  4974 ;;		line 60 in file "C:\Program Files\Microchip\xc8\v2.40\pic\sources\c90\common\ftdivl.c"
  4975 ;; Parameters:    Size  Location     Type
  4976 ;;  f1              4    0[COMMON] float 
  4977 ;;  f2              4    4[COMMON] float 
  4978 ;; Auto vars:     Size  Location     Type
  4979 ;;  quot            4    0[BANK0 ] unsigned long 
  4980 ;;  exp1            1    5[BANK0 ] unsigned char 
  4981 ;;  cntr            1    4[BANK0 ] unsigned char 
  4982 ;; Return value:  Size  Location     Type
  4983 ;;                  4    0[COMMON] unsigned long 
  4984 ;; Registers used:
  4985 ;;		wreg, status,2, status,0
  4986 ;; Tracked objects:
  4987 ;;		On entry : 0/0
  4988 ;;		On exit  : 0/0
  4989 ;;		Unchanged: 0/0
  4990 ;; Data sizes:     COMMON   BANK0   BANK1   BANK3   BANK2
  4991 ;;      Params:         8       0       0       0       0
  4992 ;;      Locals:         0       6       0       0       0
  4993 ;;      Temps:          3       0       0       0       0
  4994 ;;      Totals:        11       6       0       0       0
  4995 ;;Total ram usage:       17 bytes
  4996 ;; Hardware stack levels used: 1
  4997 ;; This function calls:
  4998 ;;		Nothing
  4999 ;; This function is called by:
  5000 ;;		_sprintf
  5001 ;; This function uses a non-reentrant model
  5002 ;;
  5003                           
  5004     08A5                     __tdiv_to_l_:	
  5005                           ;psect for function __tdiv_to_l_
  5006                           
  5007     08A5                     l2695:	
  5008                           ;incstack = 0
  5009                           ; Regs used in __tdiv_to_l_: [wreg+status,2+status,0]
  5010                           
  5011     08A5  0870               	movf	__tdiv_to_l_@f1,w
  5012     08A6  00F8               	movwf	??__tdiv_to_l_
  5013     08A7  0871               	movf	__tdiv_to_l_@f1+1,w
  5014     08A8  00F9               	movwf	??__tdiv_to_l_+1
  5015     08A9  0872               	movf	__tdiv_to_l_@f1+2,w
  5016     08AA  00FA               	movwf	??__tdiv_to_l_+2
  5017     08AB  1003               	clrc
  5018     08AC  0D79               	rlf	??__tdiv_to_l_+1,w
  5019     08AD  0D7A               	rlf	??__tdiv_to_l_+2,w
  5020     08AE  1283               	bcf	3,5	;RP0=0, select bank0
  5021     08AF  1303               	bcf	3,6	;RP1=0, select bank0
  5022     08B0  00A5               	movwf	__tdiv_to_l_@exp1
  5023     08B1  0825               	movf	__tdiv_to_l_@exp1,w
  5024     08B2  1D03               	btfss	3,2
  5025     08B3  28B5               	goto	u4381
  5026     08B4  28B6               	goto	u4380
  5027     08B5                     u4381:
  5028     08B5  28BF               	goto	l2701
  5029     08B6                     u4380:
  5030     08B6                     l2697:
  5031     08B6  3000               	movlw	0
  5032     08B7  00F3               	movwf	?__tdiv_to_l_+3
  5033     08B8  3000               	movlw	0
  5034     08B9  00F2               	movwf	?__tdiv_to_l_+2
  5035     08BA  3000               	movlw	0
  5036     08BB  00F1               	movwf	?__tdiv_to_l_+1
  5037     08BC  3000               	movlw	0
  5038     08BD  00F0               	movwf	?__tdiv_to_l_
  5039     08BE  295B               	goto	l491
  5040     08BF                     l2701:
  5041     08BF  0874               	movf	__tdiv_to_l_@f2,w
  5042     08C0  00F8               	movwf	??__tdiv_to_l_
  5043     08C1  0875               	movf	__tdiv_to_l_@f2+1,w
  5044     08C2  00F9               	movwf	??__tdiv_to_l_+1
  5045     08C3  0876               	movf	__tdiv_to_l_@f2+2,w
  5046     08C4  00FA               	movwf	??__tdiv_to_l_+2
  5047     08C5  1003               	clrc
  5048     08C6  0D79               	rlf	??__tdiv_to_l_+1,w
  5049     08C7  0D7A               	rlf	??__tdiv_to_l_+2,w
  5050     08C8  00A4               	movwf	__tdiv_to_l_@cntr
  5051     08C9  0824               	movf	__tdiv_to_l_@cntr,w
  5052     08CA  1D03               	btfss	3,2
  5053     08CB  28CD               	goto	u4391
  5054     08CC  28CE               	goto	u4390
  5055     08CD                     u4391:
  5056     08CD  28CF               	goto	l492
  5057     08CE                     u4390:
  5058     08CE  28B6               	goto	l2697
  5059     08CF                     l492:
  5060     08CF  17F1               	bsf	__tdiv_to_l_@f1+1,7
  5061     08D0                     l2707:
  5062     08D0  30FF               	movlw	255
  5063     08D1  05F0               	andwf	__tdiv_to_l_@f1,f
  5064     08D2  30FF               	movlw	255
  5065     08D3  05F1               	andwf	__tdiv_to_l_@f1+1,f
  5066     08D4  3000               	movlw	0
  5067     08D5  05F2               	andwf	__tdiv_to_l_@f1+2,f
  5068     08D6                     l2709:
  5069     08D6  17F5               	bsf	__tdiv_to_l_@f2+1,7
  5070     08D7  30FF               	movlw	255
  5071     08D8  05F4               	andwf	__tdiv_to_l_@f2,f
  5072     08D9  30FF               	movlw	255
  5073     08DA  05F5               	andwf	__tdiv_to_l_@f2+1,f
  5074     08DB  3000               	movlw	0
  5075     08DC  05F6               	andwf	__tdiv_to_l_@f2+2,f
  5076     08DD  3000               	movlw	0
  5077     08DE  00A3               	movwf	__tdiv_to_l_@quot+3
  5078     08DF  3000               	movlw	0
  5079     08E0  00A2               	movwf	__tdiv_to_l_@quot+2
  5080     08E1  3000               	movlw	0
  5081     08E2  00A1               	movwf	__tdiv_to_l_@quot+1
  5082     08E3  3000               	movlw	0
  5083     08E4  00A0               	movwf	__tdiv_to_l_@quot
  5084     08E5                     l2711:
  5085     08E5  307F               	movlw	127
  5086     08E6  02A5               	subwf	__tdiv_to_l_@exp1,f
  5087     08E7                     l2713:
  5088     08E7  3098               	movlw	152
  5089     08E8  0724               	addwf	__tdiv_to_l_@cntr,w
  5090     08E9  00F8               	movwf	??__tdiv_to_l_
  5091     08EA  0878               	movf	??__tdiv_to_l_,w
  5092     08EB  02A5               	subwf	__tdiv_to_l_@exp1,f
  5093     08EC  3018               	movlw	24
  5094     08ED  00A4               	movwf	__tdiv_to_l_@cntr
  5095     08EE                     l2715:
  5096     08EE  3001               	movlw	1
  5097     08EF  00F8               	movwf	??__tdiv_to_l_
  5098     08F0                     u4405:
  5099     08F0  1003               	clrc
  5100     08F1  0DA0               	rlf	__tdiv_to_l_@quot,f
  5101     08F2  0DA1               	rlf	__tdiv_to_l_@quot+1,f
  5102     08F3  0DA2               	rlf	__tdiv_to_l_@quot+2,f
  5103     08F4  0DA3               	rlf	__tdiv_to_l_@quot+3,f
  5104     08F5  0BF8               	decfsz	??__tdiv_to_l_,f
  5105     08F6  28F0               	goto	u4405
  5106     08F7                     l2717:
  5107     08F7  0876               	movf	__tdiv_to_l_@f2+2,w
  5108     08F8  0272               	subwf	__tdiv_to_l_@f1+2,w
  5109     08F9  1D03               	skipz
  5110     08FA  2901               	goto	u4415
  5111     08FB  0875               	movf	__tdiv_to_l_@f2+1,w
  5112     08FC  0271               	subwf	__tdiv_to_l_@f1+1,w
  5113     08FD  1D03               	skipz
  5114     08FE  2901               	goto	u4415
  5115     08FF  0874               	movf	__tdiv_to_l_@f2,w
  5116     0900  0270               	subwf	__tdiv_to_l_@f1,w
  5117     0901                     u4415:
  5118     0901  1C03               	skipc
  5119     0902  2904               	goto	u4411
  5120     0903  2905               	goto	u4410
  5121     0904                     u4411:
  5122     0904  2910               	goto	l2723
  5123     0905                     u4410:
  5124     0905                     l2719:
  5125     0905  0874               	movf	__tdiv_to_l_@f2,w
  5126     0906  02F0               	subwf	__tdiv_to_l_@f1,f
  5127     0907  0875               	movf	__tdiv_to_l_@f2+1,w
  5128     0908  1C03               	skipc
  5129     0909  0F75               	incfsz	__tdiv_to_l_@f2+1,w
  5130     090A  02F1               	subwf	__tdiv_to_l_@f1+1,f
  5131     090B  0876               	movf	__tdiv_to_l_@f2+2,w
  5132     090C  1C03               	skipc
  5133     090D  0A76               	incf	__tdiv_to_l_@f2+2,w
  5134     090E  02F2               	subwf	__tdiv_to_l_@f1+2,f
  5135     090F                     l2721:
  5136     090F  1420               	bsf	__tdiv_to_l_@quot,0
  5137     0910                     l2723:
  5138     0910  3001               	movlw	1
  5139     0911                     u4425:
  5140     0911  1003               	clrc
  5141     0912  0DF0               	rlf	__tdiv_to_l_@f1,f
  5142     0913  0DF1               	rlf	__tdiv_to_l_@f1+1,f
  5143     0914  0DF2               	rlf	__tdiv_to_l_@f1+2,f
  5144     0915  3EFF               	addlw	-1
  5145     0916  1D03               	skipz
  5146     0917  2911               	goto	u4425
  5147     0918                     l2725:
  5148     0918  3001               	movlw	1
  5149     0919  02A4               	subwf	__tdiv_to_l_@cntr,f
  5150     091A  1D03               	btfss	3,2
  5151     091B  291D               	goto	u4431
  5152     091C  291E               	goto	u4430
  5153     091D                     u4431:
  5154     091D  28EE               	goto	l2715
  5155     091E                     u4430:
  5156     091E                     l495:
  5157     091E  1FA5               	btfss	__tdiv_to_l_@exp1,7
  5158     091F  2921               	goto	u4441
  5159     0920  2922               	goto	u4440
  5160     0921                     u4441:
  5161     0921  293C               	goto	l2735
  5162     0922                     u4440:
  5163     0922                     l2727:
  5164     0922  0825               	movf	__tdiv_to_l_@exp1,w
  5165     0923  3A80               	xorlw	128
  5166     0924  3E97               	addlw	151
  5167     0925  1803               	skipnc
  5168     0926  2928               	goto	u4451
  5169     0927  2929               	goto	u4450
  5170     0928                     u4451:
  5171     0928  292A               	goto	l2733
  5172     0929                     u4450:
  5173     0929  28B6               	goto	l2697
  5174     092A                     l2733:
  5175     092A  3001               	movlw	1
  5176     092B                     u4465:
  5177     092B  1003               	clrc
  5178     092C  0CA3               	rrf	__tdiv_to_l_@quot+3,f
  5179     092D  0CA2               	rrf	__tdiv_to_l_@quot+2,f
  5180     092E  0CA1               	rrf	__tdiv_to_l_@quot+1,f
  5181     092F  0CA0               	rrf	__tdiv_to_l_@quot,f
  5182     0930  3EFF               	addlw	-1
  5183     0931  1D03               	skipz
  5184     0932  292B               	goto	u4465
  5185     0933  3001               	movlw	1
  5186     0934  00F8               	movwf	??__tdiv_to_l_
  5187     0935  0878               	movf	??__tdiv_to_l_,w
  5188     0936  07A5               	addwf	__tdiv_to_l_@exp1,f
  5189     0937  1D03               	btfss	3,2
  5190     0938  293A               	goto	u4471
  5191     0939  293B               	goto	u4470
  5192     093A                     u4471:
  5193     093A  292A               	goto	l2733
  5194     093B                     u4470:
  5195     093B  2953               	goto	l2743
  5196     093C                     l2735:
  5197     093C  3018               	movlw	24
  5198     093D  0225               	subwf	__tdiv_to_l_@exp1,w
  5199     093E  1C03               	skipc
  5200     093F  2941               	goto	u4481
  5201     0940  2942               	goto	u4480
  5202     0941                     u4481:
  5203     0941  294E               	goto	l502
  5204     0942                     u4480:
  5205     0942  28B6               	goto	l2697
  5206     0943                     l2741:
  5207     0943  3001               	movlw	1
  5208     0944  00F8               	movwf	??__tdiv_to_l_
  5209     0945                     u4495:
  5210     0945  1003               	clrc
  5211     0946  0DA0               	rlf	__tdiv_to_l_@quot,f
  5212     0947  0DA1               	rlf	__tdiv_to_l_@quot+1,f
  5213     0948  0DA2               	rlf	__tdiv_to_l_@quot+2,f
  5214     0949  0DA3               	rlf	__tdiv_to_l_@quot+3,f
  5215     094A  0BF8               	decfsz	??__tdiv_to_l_,f
  5216     094B  2945               	goto	u4495
  5217     094C  3001               	movlw	1
  5218     094D  02A5               	subwf	__tdiv_to_l_@exp1,f
  5219     094E                     l502:
  5220     094E  0825               	movf	__tdiv_to_l_@exp1,w
  5221     094F  1D03               	btfss	3,2
  5222     0950  2952               	goto	u4501
  5223     0951  2953               	goto	u4500
  5224     0952                     u4501:
  5225     0952  2943               	goto	l2741
  5226     0953                     u4500:
  5227     0953                     l2743:
  5228     0953  0823               	movf	__tdiv_to_l_@quot+3,w
  5229     0954  00F3               	movwf	?__tdiv_to_l_+3
  5230     0955  0822               	movf	__tdiv_to_l_@quot+2,w
  5231     0956  00F2               	movwf	?__tdiv_to_l_+2
  5232     0957  0821               	movf	__tdiv_to_l_@quot+1,w
  5233     0958  00F1               	movwf	?__tdiv_to_l_+1
  5234     0959  0820               	movf	__tdiv_to_l_@quot,w
  5235     095A  00F0               	movwf	?__tdiv_to_l_
  5236     095B                     l491:
  5237     095B  0008               	return
  5238     095C                     __end_of__tdiv_to_l_:
  5239                           
  5240                           	psect	text10
  5241     00F6                     __ptext10:	
  5242 ;; *************** function __div_to_l_ *****************
  5243 ;; Defined at:
  5244 ;;		line 60 in file "C:\Program Files\Microchip\xc8\v2.40\pic\sources\c90\common\fldivl.c"
  5245 ;; Parameters:    Size  Location     Type
  5246 ;;  f1              4    0[COMMON] unsigned long 
  5247 ;;  f2              4    4[COMMON] unsigned long 
  5248 ;; Auto vars:     Size  Location     Type
  5249 ;;  quot            4    0[BANK0 ] unsigned long 
  5250 ;;  exp1            1    5[BANK0 ] unsigned char 
  5251 ;;  cntr            1    4[BANK0 ] unsigned char 
  5252 ;; Return value:  Size  Location     Type
  5253 ;;                  4    0[COMMON] unsigned long 
  5254 ;; Registers used:
  5255 ;;		wreg, status,2, status,0
  5256 ;; Tracked objects:
  5257 ;;		On entry : 0/0
  5258 ;;		On exit  : 0/0
  5259 ;;		Unchanged: 0/0
  5260 ;; Data sizes:     COMMON   BANK0   BANK1   BANK3   BANK2
  5261 ;;      Params:         8       0       0       0       0
  5262 ;;      Locals:         0       6       0       0       0
  5263 ;;      Temps:          1       0       0       0       0
  5264 ;;      Totals:         9       6       0       0       0
  5265 ;;Total ram usage:       15 bytes
  5266 ;; Hardware stack levels used: 1
  5267 ;; This function calls:
  5268 ;;		Nothing
  5269 ;; This function is called by:
  5270 ;;		_sprintf
  5271 ;; This function uses a non-reentrant model
  5272 ;;
  5273                           
  5274     00F6                     __div_to_l_:	
  5275                           ;psect for function __div_to_l_
  5276                           
  5277     00F6                     l2747:	
  5278                           ;incstack = 0
  5279                           ; Regs used in __div_to_l_: [wreg+status,2+status,0]
  5280                           
  5281     00F6  1003               	clrc
  5282     00F7  0D72               	rlf	__div_to_l_@f1+2,w
  5283     00F8  0D73               	rlf	__div_to_l_@f1+3,w
  5284     00F9  1283               	bcf	3,5	;RP0=0, select bank0
  5285     00FA  1303               	bcf	3,6	;RP1=0, select bank0
  5286     00FB  00A5               	movwf	__div_to_l_@exp1
  5287     00FC  0825               	movf	__div_to_l_@exp1,w
  5288     00FD  1D03               	btfss	3,2
  5289     00FE  2900               	goto	u4511
  5290     00FF  2901               	goto	u4510
  5291     0100                     u4511:
  5292     0100  290A               	goto	l2753
  5293     0101                     u4510:
  5294     0101                     l2749:
  5295     0101  3000               	movlw	0
  5296     0102  00F3               	movwf	?__div_to_l_+3
  5297     0103  3000               	movlw	0
  5298     0104  00F2               	movwf	?__div_to_l_+2
  5299     0105  3000               	movlw	0
  5300     0106  00F1               	movwf	?__div_to_l_+1
  5301     0107  3000               	movlw	0
  5302     0108  00F0               	movwf	?__div_to_l_
  5303     0109  29AD               	goto	l444
  5304     010A                     l2753:
  5305     010A  1003               	clrc
  5306     010B  0D76               	rlf	__div_to_l_@f2+2,w
  5307     010C  0D77               	rlf	__div_to_l_@f2+3,w
  5308     010D  00A4               	movwf	__div_to_l_@cntr
  5309     010E  0824               	movf	__div_to_l_@cntr,w
  5310     010F  1D03               	btfss	3,2
  5311     0110  2912               	goto	u4521
  5312     0111  2913               	goto	u4520
  5313     0112                     u4521:
  5314     0112  2914               	goto	l445
  5315     0113                     u4520:
  5316     0113  2901               	goto	l2749
  5317     0114                     l445:
  5318     0114  17F2               	bsf	__div_to_l_@f1+2,7
  5319     0115                     l2759:
  5320     0115  30FF               	movlw	255
  5321     0116  05F0               	andwf	__div_to_l_@f1,f
  5322     0117  30FF               	movlw	255
  5323     0118  05F1               	andwf	__div_to_l_@f1+1,f
  5324     0119  30FF               	movlw	255
  5325     011A  05F2               	andwf	__div_to_l_@f1+2,f
  5326     011B  3000               	movlw	0
  5327     011C  05F3               	andwf	__div_to_l_@f1+3,f
  5328     011D                     l2761:
  5329     011D  17F6               	bsf	__div_to_l_@f2+2,7
  5330     011E  30FF               	movlw	255
  5331     011F  05F4               	andwf	__div_to_l_@f2,f
  5332     0120  30FF               	movlw	255
  5333     0121  05F5               	andwf	__div_to_l_@f2+1,f
  5334     0122  30FF               	movlw	255
  5335     0123  05F6               	andwf	__div_to_l_@f2+2,f
  5336     0124  3000               	movlw	0
  5337     0125  05F7               	andwf	__div_to_l_@f2+3,f
  5338     0126  3000               	movlw	0
  5339     0127  00A3               	movwf	__div_to_l_@quot+3
  5340     0128  3000               	movlw	0
  5341     0129  00A2               	movwf	__div_to_l_@quot+2
  5342     012A  3000               	movlw	0
  5343     012B  00A1               	movwf	__div_to_l_@quot+1
  5344     012C  3000               	movlw	0
  5345     012D  00A0               	movwf	__div_to_l_@quot
  5346     012E                     l2763:
  5347     012E  307F               	movlw	127
  5348     012F  02A5               	subwf	__div_to_l_@exp1,f
  5349     0130                     l2765:
  5350     0130  30A0               	movlw	160
  5351     0131  0724               	addwf	__div_to_l_@cntr,w
  5352     0132  00F8               	movwf	??__div_to_l_
  5353     0133  0878               	movf	??__div_to_l_,w
  5354     0134  02A5               	subwf	__div_to_l_@exp1,f
  5355     0135  3020               	movlw	32
  5356     0136  00A4               	movwf	__div_to_l_@cntr
  5357     0137                     l2767:
  5358     0137  3001               	movlw	1
  5359     0138  00F8               	movwf	??__div_to_l_
  5360     0139                     u4535:
  5361     0139  1003               	clrc
  5362     013A  0DA0               	rlf	__div_to_l_@quot,f
  5363     013B  0DA1               	rlf	__div_to_l_@quot+1,f
  5364     013C  0DA2               	rlf	__div_to_l_@quot+2,f
  5365     013D  0DA3               	rlf	__div_to_l_@quot+3,f
  5366     013E  0BF8               	decfsz	??__div_to_l_,f
  5367     013F  2939               	goto	u4535
  5368     0140                     l2769:
  5369     0140  0877               	movf	__div_to_l_@f2+3,w
  5370     0141  0273               	subwf	__div_to_l_@f1+3,w
  5371     0142  1D03               	skipz
  5372     0143  294E               	goto	u4545
  5373     0144  0876               	movf	__div_to_l_@f2+2,w
  5374     0145  0272               	subwf	__div_to_l_@f1+2,w
  5375     0146  1D03               	skipz
  5376     0147  294E               	goto	u4545
  5377     0148  0875               	movf	__div_to_l_@f2+1,w
  5378     0149  0271               	subwf	__div_to_l_@f1+1,w
  5379     014A  1D03               	skipz
  5380     014B  294E               	goto	u4545
  5381     014C  0874               	movf	__div_to_l_@f2,w
  5382     014D  0270               	subwf	__div_to_l_@f1,w
  5383     014E                     u4545:
  5384     014E  1C03               	skipc
  5385     014F  2951               	goto	u4541
  5386     0150  2952               	goto	u4540
  5387     0151                     u4541:
  5388     0151  2961               	goto	l2775
  5389     0152                     u4540:
  5390     0152                     l2771:
  5391     0152  0874               	movf	__div_to_l_@f2,w
  5392     0153  02F0               	subwf	__div_to_l_@f1,f
  5393     0154  0875               	movf	__div_to_l_@f2+1,w
  5394     0155  1C03               	skipc
  5395     0156  0F75               	incfsz	__div_to_l_@f2+1,w
  5396     0157  02F1               	subwf	__div_to_l_@f1+1,f
  5397     0158  0876               	movf	__div_to_l_@f2+2,w
  5398     0159  1C03               	skipc
  5399     015A  0F76               	incfsz	__div_to_l_@f2+2,w
  5400     015B  02F2               	subwf	__div_to_l_@f1+2,f
  5401     015C  0877               	movf	__div_to_l_@f2+3,w
  5402     015D  1C03               	skipc
  5403     015E  0F77               	incfsz	__div_to_l_@f2+3,w
  5404     015F  02F3               	subwf	__div_to_l_@f1+3,f
  5405     0160                     l2773:
  5406     0160  1420               	bsf	__div_to_l_@quot,0
  5407     0161                     l2775:
  5408     0161  3001               	movlw	1
  5409     0162  00F8               	movwf	??__div_to_l_
  5410     0163                     u4555:
  5411     0163  1003               	clrc
  5412     0164  0DF0               	rlf	__div_to_l_@f1,f
  5413     0165  0DF1               	rlf	__div_to_l_@f1+1,f
  5414     0166  0DF2               	rlf	__div_to_l_@f1+2,f
  5415     0167  0DF3               	rlf	__div_to_l_@f1+3,f
  5416     0168  0BF8               	decfsz	??__div_to_l_,f
  5417     0169  2963               	goto	u4555
  5418     016A                     l2777:
  5419     016A  3001               	movlw	1
  5420     016B  02A4               	subwf	__div_to_l_@cntr,f
  5421     016C  1D03               	btfss	3,2
  5422     016D  296F               	goto	u4561
  5423     016E  2970               	goto	u4560
  5424     016F                     u4561:
  5425     016F  2937               	goto	l2767
  5426     0170                     u4560:
  5427     0170                     l448:
  5428     0170  1FA5               	btfss	__div_to_l_@exp1,7
  5429     0171  2973               	goto	u4571
  5430     0172  2974               	goto	u4570
  5431     0173                     u4571:
  5432     0173  298E               	goto	l2787
  5433     0174                     u4570:
  5434     0174                     l2779:
  5435     0174  0825               	movf	__div_to_l_@exp1,w
  5436     0175  3A80               	xorlw	128
  5437     0176  3E9F               	addlw	159
  5438     0177  1803               	skipnc
  5439     0178  297A               	goto	u4581
  5440     0179  297B               	goto	u4580
  5441     017A                     u4581:
  5442     017A  297C               	goto	l2785
  5443     017B                     u4580:
  5444     017B  2901               	goto	l2749
  5445     017C                     l2785:
  5446     017C  3001               	movlw	1
  5447     017D                     u4595:
  5448     017D  1003               	clrc
  5449     017E  0CA3               	rrf	__div_to_l_@quot+3,f
  5450     017F  0CA2               	rrf	__div_to_l_@quot+2,f
  5451     0180  0CA1               	rrf	__div_to_l_@quot+1,f
  5452     0181  0CA0               	rrf	__div_to_l_@quot,f
  5453     0182  3EFF               	addlw	-1
  5454     0183  1D03               	skipz
  5455     0184  297D               	goto	u4595
  5456     0185  3001               	movlw	1
  5457     0186  00F8               	movwf	??__div_to_l_
  5458     0187  0878               	movf	??__div_to_l_,w
  5459     0188  07A5               	addwf	__div_to_l_@exp1,f
  5460     0189  1D03               	btfss	3,2
  5461     018A  298C               	goto	u4601
  5462     018B  298D               	goto	u4600
  5463     018C                     u4601:
  5464     018C  297C               	goto	l2785
  5465     018D                     u4600:
  5466     018D  29A5               	goto	l2795
  5467     018E                     l2787:
  5468     018E  3020               	movlw	32
  5469     018F  0225               	subwf	__div_to_l_@exp1,w
  5470     0190  1C03               	skipc
  5471     0191  2993               	goto	u4611
  5472     0192  2994               	goto	u4610
  5473     0193                     u4611:
  5474     0193  29A0               	goto	l455
  5475     0194                     u4610:
  5476     0194  2901               	goto	l2749
  5477     0195                     l2793:
  5478     0195  3001               	movlw	1
  5479     0196  00F8               	movwf	??__div_to_l_
  5480     0197                     u4625:
  5481     0197  1003               	clrc
  5482     0198  0DA0               	rlf	__div_to_l_@quot,f
  5483     0199  0DA1               	rlf	__div_to_l_@quot+1,f
  5484     019A  0DA2               	rlf	__div_to_l_@quot+2,f
  5485     019B  0DA3               	rlf	__div_to_l_@quot+3,f
  5486     019C  0BF8               	decfsz	??__div_to_l_,f
  5487     019D  2997               	goto	u4625
  5488     019E  3001               	movlw	1
  5489     019F  02A5               	subwf	__div_to_l_@exp1,f
  5490     01A0                     l455:
  5491     01A0  0825               	movf	__div_to_l_@exp1,w
  5492     01A1  1D03               	btfss	3,2
  5493     01A2  29A4               	goto	u4631
  5494     01A3  29A5               	goto	u4630
  5495     01A4                     u4631:
  5496     01A4  2995               	goto	l2793
  5497     01A5                     u4630:
  5498     01A5                     l2795:
  5499     01A5  0823               	movf	__div_to_l_@quot+3,w
  5500     01A6  00F3               	movwf	?__div_to_l_+3
  5501     01A7  0822               	movf	__div_to_l_@quot+2,w
  5502     01A8  00F2               	movwf	?__div_to_l_+2
  5503     01A9  0821               	movf	__div_to_l_@quot+1,w
  5504     01AA  00F1               	movwf	?__div_to_l_+1
  5505     01AB  0820               	movf	__div_to_l_@quot,w
  5506     01AC  00F0               	movwf	?__div_to_l_
  5507     01AD                     l444:
  5508     01AD  0008               	return
  5509     01AE                     __end_of__div_to_l_:
  5510                           
  5511                           	psect	text11
  5512     1D5F                     __ptext11:	
  5513 ;; *************** function ___wmul *****************
  5514 ;; Defined at:
  5515 ;;		line 15 in file "C:\Program Files\Microchip\xc8\v2.40\pic\sources\c90\common\Umul16.c"
  5516 ;; Parameters:    Size  Location     Type
  5517 ;;  multiplier      2    0[COMMON] unsigned int 
  5518 ;;  multiplicand    2    2[COMMON] unsigned int 
  5519 ;; Auto vars:     Size  Location     Type
  5520 ;;  product         2    4[COMMON] unsigned int 
  5521 ;; Return value:  Size  Location     Type
  5522 ;;                  2    0[COMMON] unsigned int 
  5523 ;; Registers used:
  5524 ;;		wreg, status,2, status,0
  5525 ;; Tracked objects:
  5526 ;;		On entry : 0/0
  5527 ;;		On exit  : 0/0
  5528 ;;		Unchanged: 0/0
  5529 ;; Data sizes:     COMMON   BANK0   BANK1   BANK3   BANK2
  5530 ;;      Params:         4       0       0       0       0
  5531 ;;      Locals:         2       0       0       0       0
  5532 ;;      Temps:          0       0       0       0       0
  5533 ;;      Totals:         6       0       0       0       0
  5534 ;;Total ram usage:        6 bytes
  5535 ;; Hardware stack levels used: 1
  5536 ;; This function calls:
  5537 ;;		Nothing
  5538 ;; This function is called by:
  5539 ;;		_sprintf
  5540 ;; This function uses a non-reentrant model
  5541 ;;
  5542                           
  5543     1D5F                     ___wmul:	
  5544                           ;psect for function ___wmul
  5545                           
  5546     1D5F                     l2799:	
  5547                           ;incstack = 0
  5548                           ; Regs used in ___wmul: [wreg+status,2+status,0]
  5549                           
  5550     1D5F  01F4               	clrf	___wmul@product
  5551     1D60  01F5               	clrf	___wmul@product+1
  5552     1D61                     l2801:
  5553     1D61  1C70               	btfss	___wmul@multiplier,0
  5554     1D62  2D64               	goto	u4641
  5555     1D63  2D65               	goto	u4640
  5556     1D64                     u4641:
  5557     1D64  2D6B               	goto	l274
  5558     1D65                     u4640:
  5559     1D65                     l2803:
  5560     1D65  0872               	movf	___wmul@multiplicand,w
  5561     1D66  07F4               	addwf	___wmul@product,f
  5562     1D67  1803               	skipnc
  5563     1D68  0AF5               	incf	___wmul@product+1,f
  5564     1D69  0873               	movf	___wmul@multiplicand+1,w
  5565     1D6A  07F5               	addwf	___wmul@product+1,f
  5566     1D6B                     l274:
  5567     1D6B  3001               	movlw	1
  5568     1D6C                     u4655:
  5569     1D6C  1003               	clrc
  5570     1D6D  0DF2               	rlf	___wmul@multiplicand,f
  5571     1D6E  0DF3               	rlf	___wmul@multiplicand+1,f
  5572     1D6F  3EFF               	addlw	-1
  5573     1D70  1D03               	skipz
  5574     1D71  2D6C               	goto	u4655
  5575     1D72                     l2805:
  5576     1D72  3001               	movlw	1
  5577     1D73                     u4665:
  5578     1D73  1003               	clrc
  5579     1D74  0CF1               	rrf	___wmul@multiplier+1,f
  5580     1D75  0CF0               	rrf	___wmul@multiplier,f
  5581     1D76  3EFF               	addlw	-1
  5582     1D77  1D03               	skipz
  5583     1D78  2D73               	goto	u4665
  5584     1D79                     l2807:
  5585     1D79  0870               	movf	___wmul@multiplier,w
  5586     1D7A  0471               	iorwf	___wmul@multiplier+1,w
  5587     1D7B  1D03               	btfss	3,2
  5588     1D7C  2D7E               	goto	u4671
  5589     1D7D  2D7F               	goto	u4670
  5590     1D7E                     u4671:
  5591     1D7E  2D61               	goto	l2801
  5592     1D7F                     u4670:
  5593     1D7F                     l2809:
  5594     1D7F  0875               	movf	___wmul@product+1,w
  5595     1D80  00F1               	movwf	?___wmul+1
  5596     1D81  0874               	movf	___wmul@product,w
  5597     1D82  00F0               	movwf	?___wmul
  5598     1D83                     l276:
  5599     1D83  0008               	return
  5600     1D84                     __end_of___wmul:
  5601                           
  5602                           	psect	text12
  5603     1E16                     __ptext12:	
  5604 ;; *************** function ___llmod *****************
  5605 ;; Defined at:
  5606 ;;		line 5 in file "C:\Program Files\Microchip\xc8\v2.40\pic\sources\c90\common\llmod.c"
  5607 ;; Parameters:    Size  Location     Type
  5608 ;;  divisor         4    0[COMMON] unsigned long 
  5609 ;;  dividend        4    4[COMMON] unsigned long 
  5610 ;; Auto vars:     Size  Location     Type
  5611 ;;  counter         1    9[COMMON] unsigned char 
  5612 ;; Return value:  Size  Location     Type
  5613 ;;                  4    0[COMMON] unsigned long 
  5614 ;; Registers used:
  5615 ;;		wreg, status,2, status,0
  5616 ;; Tracked objects:
  5617 ;;		On entry : 0/0
  5618 ;;		On exit  : 0/0
  5619 ;;		Unchanged: 0/0
  5620 ;; Data sizes:     COMMON   BANK0   BANK1   BANK3   BANK2
  5621 ;;      Params:         8       0       0       0       0
  5622 ;;      Locals:         1       0       0       0       0
  5623 ;;      Temps:          1       0       0       0       0
  5624 ;;      Totals:        10       0       0       0       0
  5625 ;;Total ram usage:       10 bytes
  5626 ;; Hardware stack levels used: 1
  5627 ;; This function calls:
  5628 ;;		Nothing
  5629 ;; This function is called by:
  5630 ;;		_sprintf
  5631 ;; This function uses a non-reentrant model
  5632 ;;
  5633                           
  5634     1E16                     ___llmod:	
  5635                           ;psect for function ___llmod
  5636                           
  5637     1E16                     l2913:	
  5638                           ;incstack = 0
  5639                           ; Regs used in ___llmod: [wreg+status,2+status,0]
  5640                           
  5641     1E16  0873               	movf	___llmod@divisor+3,w
  5642     1E17  0472               	iorwf	___llmod@divisor+2,w
  5643     1E18  0471               	iorwf	___llmod@divisor+1,w
  5644     1E19  0470               	iorwf	___llmod@divisor,w
  5645     1E1A  1903               	skipnz
  5646     1E1B  2E1D               	goto	u4961
  5647     1E1C  2E1E               	goto	u4960
  5648     1E1D                     u4961:
  5649     1E1D  2E61               	goto	l2929
  5650     1E1E                     u4960:
  5651     1E1E                     l2915:
  5652     1E1E  01F9               	clrf	___llmod@counter
  5653     1E1F  0AF9               	incf	___llmod@counter,f
  5654     1E20  2E2E               	goto	l2919
  5655     1E21                     l2917:
  5656     1E21  3001               	movlw	1
  5657     1E22  00F8               	movwf	??___llmod
  5658     1E23                     u4975:
  5659     1E23  1003               	clrc
  5660     1E24  0DF0               	rlf	___llmod@divisor,f
  5661     1E25  0DF1               	rlf	___llmod@divisor+1,f
  5662     1E26  0DF2               	rlf	___llmod@divisor+2,f
  5663     1E27  0DF3               	rlf	___llmod@divisor+3,f
  5664     1E28  0BF8               	decfsz	??___llmod,f
  5665     1E29  2E23               	goto	u4975
  5666     1E2A  3001               	movlw	1
  5667     1E2B  00F8               	movwf	??___llmod
  5668     1E2C  0878               	movf	??___llmod,w
  5669     1E2D  07F9               	addwf	___llmod@counter,f
  5670     1E2E                     l2919:
  5671     1E2E  1FF3               	btfss	___llmod@divisor+3,7
  5672     1E2F  2E31               	goto	u4981
  5673     1E30  2E32               	goto	u4980
  5674     1E31                     u4981:
  5675     1E31  2E21               	goto	l2917
  5676     1E32                     u4980:
  5677     1E32                     l2921:
  5678     1E32  0873               	movf	___llmod@divisor+3,w
  5679     1E33  0277               	subwf	___llmod@dividend+3,w
  5680     1E34  1D03               	skipz
  5681     1E35  2E40               	goto	u4995
  5682     1E36  0872               	movf	___llmod@divisor+2,w
  5683     1E37  0276               	subwf	___llmod@dividend+2,w
  5684     1E38  1D03               	skipz
  5685     1E39  2E40               	goto	u4995
  5686     1E3A  0871               	movf	___llmod@divisor+1,w
  5687     1E3B  0275               	subwf	___llmod@dividend+1,w
  5688     1E3C  1D03               	skipz
  5689     1E3D  2E40               	goto	u4995
  5690     1E3E  0870               	movf	___llmod@divisor,w
  5691     1E3F  0274               	subwf	___llmod@dividend,w
  5692     1E40                     u4995:
  5693     1E40  1C03               	skipc
  5694     1E41  2E43               	goto	u4991
  5695     1E42  2E44               	goto	u4990
  5696     1E43                     u4991:
  5697     1E43  2E52               	goto	l2925
  5698     1E44                     u4990:
  5699     1E44                     l2923:
  5700     1E44  0870               	movf	___llmod@divisor,w
  5701     1E45  02F4               	subwf	___llmod@dividend,f
  5702     1E46  0871               	movf	___llmod@divisor+1,w
  5703     1E47  1C03               	skipc
  5704     1E48  0F71               	incfsz	___llmod@divisor+1,w
  5705     1E49  02F5               	subwf	___llmod@dividend+1,f
  5706     1E4A  0872               	movf	___llmod@divisor+2,w
  5707     1E4B  1C03               	skipc
  5708     1E4C  0F72               	incfsz	___llmod@divisor+2,w
  5709     1E4D  02F6               	subwf	___llmod@dividend+2,f
  5710     1E4E  0873               	movf	___llmod@divisor+3,w
  5711     1E4F  1C03               	skipc
  5712     1E50  0F73               	incfsz	___llmod@divisor+3,w
  5713     1E51  02F7               	subwf	___llmod@dividend+3,f
  5714     1E52                     l2925:
  5715     1E52  3001               	movlw	1
  5716     1E53                     u5005:
  5717     1E53  1003               	clrc
  5718     1E54  0CF3               	rrf	___llmod@divisor+3,f
  5719     1E55  0CF2               	rrf	___llmod@divisor+2,f
  5720     1E56  0CF1               	rrf	___llmod@divisor+1,f
  5721     1E57  0CF0               	rrf	___llmod@divisor,f
  5722     1E58  3EFF               	addlw	-1
  5723     1E59  1D03               	skipz
  5724     1E5A  2E53               	goto	u5005
  5725     1E5B                     l2927:
  5726     1E5B  3001               	movlw	1
  5727     1E5C  02F9               	subwf	___llmod@counter,f
  5728     1E5D  1D03               	btfss	3,2
  5729     1E5E  2E60               	goto	u5011
  5730     1E5F  2E61               	goto	u5010
  5731     1E60                     u5011:
  5732     1E60  2E32               	goto	l2921
  5733     1E61                     u5010:
  5734     1E61                     l2929:
  5735     1E61  0877               	movf	___llmod@dividend+3,w
  5736     1E62  00F3               	movwf	?___llmod+3
  5737     1E63  0876               	movf	___llmod@dividend+2,w
  5738     1E64  00F2               	movwf	?___llmod+2
  5739     1E65  0875               	movf	___llmod@dividend+1,w
  5740     1E66  00F1               	movwf	?___llmod+1
  5741     1E67  0874               	movf	___llmod@dividend,w
  5742     1E68  00F0               	movwf	?___llmod
  5743     1E69                     l530:
  5744     1E69  0008               	return
  5745     1E6A                     __end_of___llmod:
  5746                           
  5747                           	psect	text13
  5748     1EC3                     __ptext13:	
  5749 ;; *************** function ___lldiv *****************
  5750 ;; Defined at:
  5751 ;;		line 5 in file "C:\Program Files\Microchip\xc8\v2.40\pic\sources\c90\common\__lldiv.c"
  5752 ;; Parameters:    Size  Location     Type
  5753 ;;  divisor         4    0[COMMON] unsigned long 
  5754 ;;  dividend        4    4[COMMON] unsigned long 
  5755 ;; Auto vars:     Size  Location     Type
  5756 ;;  quotient        4    9[COMMON] unsigned long 
  5757 ;;  counter         1   13[COMMON] unsigned char 
  5758 ;; Return value:  Size  Location     Type
  5759 ;;                  4    0[COMMON] unsigned long 
  5760 ;; Registers used:
  5761 ;;		wreg, status,2, status,0
  5762 ;; Tracked objects:
  5763 ;;		On entry : 0/0
  5764 ;;		On exit  : 0/0
  5765 ;;		Unchanged: 0/0
  5766 ;; Data sizes:     COMMON   BANK0   BANK1   BANK3   BANK2
  5767 ;;      Params:         8       0       0       0       0
  5768 ;;      Locals:         5       0       0       0       0
  5769 ;;      Temps:          1       0       0       0       0
  5770 ;;      Totals:        14       0       0       0       0
  5771 ;;Total ram usage:       14 bytes
  5772 ;; Hardware stack levels used: 1
  5773 ;; This function calls:
  5774 ;;		Nothing
  5775 ;; This function is called by:
  5776 ;;		_sprintf
  5777 ;; This function uses a non-reentrant model
  5778 ;;
  5779                           
  5780     1EC3                     ___lldiv:	
  5781                           ;psect for function ___lldiv
  5782                           
  5783     1EC3                     l2813:	
  5784                           ;incstack = 0
  5785                           ; Regs used in ___lldiv: [wreg+status,2+status,0]
  5786                           
  5787     1EC3  3000               	movlw	0
  5788     1EC4  00FC               	movwf	___lldiv@quotient+3
  5789     1EC5  3000               	movlw	0
  5790     1EC6  00FB               	movwf	___lldiv@quotient+2
  5791     1EC7  3000               	movlw	0
  5792     1EC8  00FA               	movwf	___lldiv@quotient+1
  5793     1EC9  3000               	movlw	0
  5794     1ECA  00F9               	movwf	___lldiv@quotient
  5795     1ECB  0873               	movf	___lldiv@divisor+3,w
  5796     1ECC  0472               	iorwf	___lldiv@divisor+2,w
  5797     1ECD  0471               	iorwf	___lldiv@divisor+1,w
  5798     1ECE  0470               	iorwf	___lldiv@divisor,w
  5799     1ECF  1903               	skipnz
  5800     1ED0  2ED2               	goto	u4681
  5801     1ED1  2ED3               	goto	u4680
  5802     1ED2                     u4681:
  5803     1ED2  2F20               	goto	l2833
  5804     1ED3                     u4680:
  5805     1ED3                     l2815:
  5806     1ED3  01FD               	clrf	___lldiv@counter
  5807     1ED4  0AFD               	incf	___lldiv@counter,f
  5808     1ED5  2EE3               	goto	l2819
  5809     1ED6                     l2817:
  5810     1ED6  3001               	movlw	1
  5811     1ED7  00F8               	movwf	??___lldiv
  5812     1ED8                     u4695:
  5813     1ED8  1003               	clrc
  5814     1ED9  0DF0               	rlf	___lldiv@divisor,f
  5815     1EDA  0DF1               	rlf	___lldiv@divisor+1,f
  5816     1EDB  0DF2               	rlf	___lldiv@divisor+2,f
  5817     1EDC  0DF3               	rlf	___lldiv@divisor+3,f
  5818     1EDD  0BF8               	decfsz	??___lldiv,f
  5819     1EDE  2ED8               	goto	u4695
  5820     1EDF  3001               	movlw	1
  5821     1EE0  00F8               	movwf	??___lldiv
  5822     1EE1  0878               	movf	??___lldiv,w
  5823     1EE2  07FD               	addwf	___lldiv@counter,f
  5824     1EE3                     l2819:
  5825     1EE3  1FF3               	btfss	___lldiv@divisor+3,7
  5826     1EE4  2EE6               	goto	u4701
  5827     1EE5  2EE7               	goto	u4700
  5828     1EE6                     u4701:
  5829     1EE6  2ED6               	goto	l2817
  5830     1EE7                     u4700:
  5831     1EE7                     l2821:
  5832     1EE7  3001               	movlw	1
  5833     1EE8  00F8               	movwf	??___lldiv
  5834     1EE9                     u4715:
  5835     1EE9  1003               	clrc
  5836     1EEA  0DF9               	rlf	___lldiv@quotient,f
  5837     1EEB  0DFA               	rlf	___lldiv@quotient+1,f
  5838     1EEC  0DFB               	rlf	___lldiv@quotient+2,f
  5839     1EED  0DFC               	rlf	___lldiv@quotient+3,f
  5840     1EEE  0BF8               	decfsz	??___lldiv,f
  5841     1EEF  2EE9               	goto	u4715
  5842     1EF0                     l2823:
  5843     1EF0  0873               	movf	___lldiv@divisor+3,w
  5844     1EF1  0277               	subwf	___lldiv@dividend+3,w
  5845     1EF2  1D03               	skipz
  5846     1EF3  2EFE               	goto	u4725
  5847     1EF4  0872               	movf	___lldiv@divisor+2,w
  5848     1EF5  0276               	subwf	___lldiv@dividend+2,w
  5849     1EF6  1D03               	skipz
  5850     1EF7  2EFE               	goto	u4725
  5851     1EF8  0871               	movf	___lldiv@divisor+1,w
  5852     1EF9  0275               	subwf	___lldiv@dividend+1,w
  5853     1EFA  1D03               	skipz
  5854     1EFB  2EFE               	goto	u4725
  5855     1EFC  0870               	movf	___lldiv@divisor,w
  5856     1EFD  0274               	subwf	___lldiv@dividend,w
  5857     1EFE                     u4725:
  5858     1EFE  1C03               	skipc
  5859     1EFF  2F01               	goto	u4721
  5860     1F00  2F02               	goto	u4720
  5861     1F01                     u4721:
  5862     1F01  2F11               	goto	l2829
  5863     1F02                     u4720:
  5864     1F02                     l2825:
  5865     1F02  0870               	movf	___lldiv@divisor,w
  5866     1F03  02F4               	subwf	___lldiv@dividend,f
  5867     1F04  0871               	movf	___lldiv@divisor+1,w
  5868     1F05  1C03               	skipc
  5869     1F06  0F71               	incfsz	___lldiv@divisor+1,w
  5870     1F07  02F5               	subwf	___lldiv@dividend+1,f
  5871     1F08  0872               	movf	___lldiv@divisor+2,w
  5872     1F09  1C03               	skipc
  5873     1F0A  0F72               	incfsz	___lldiv@divisor+2,w
  5874     1F0B  02F6               	subwf	___lldiv@dividend+2,f
  5875     1F0C  0873               	movf	___lldiv@divisor+3,w
  5876     1F0D  1C03               	skipc
  5877     1F0E  0F73               	incfsz	___lldiv@divisor+3,w
  5878     1F0F  02F7               	subwf	___lldiv@dividend+3,f
  5879     1F10                     l2827:
  5880     1F10  1479               	bsf	___lldiv@quotient,0
  5881     1F11                     l2829:
  5882     1F11  3001               	movlw	1
  5883     1F12                     u4735:
  5884     1F12  1003               	clrc
  5885     1F13  0CF3               	rrf	___lldiv@divisor+3,f
  5886     1F14  0CF2               	rrf	___lldiv@divisor+2,f
  5887     1F15  0CF1               	rrf	___lldiv@divisor+1,f
  5888     1F16  0CF0               	rrf	___lldiv@divisor,f
  5889     1F17  3EFF               	addlw	-1
  5890     1F18  1D03               	skipz
  5891     1F19  2F12               	goto	u4735
  5892     1F1A                     l2831:
  5893     1F1A  3001               	movlw	1
  5894     1F1B  02FD               	subwf	___lldiv@counter,f
  5895     1F1C  1D03               	btfss	3,2
  5896     1F1D  2F1F               	goto	u4741
  5897     1F1E  2F20               	goto	u4740
  5898     1F1F                     u4741:
  5899     1F1F  2EE7               	goto	l2821
  5900     1F20                     u4740:
  5901     1F20                     l2833:
  5902     1F20  087C               	movf	___lldiv@quotient+3,w
  5903     1F21  00F3               	movwf	?___lldiv+3
  5904     1F22  087B               	movf	___lldiv@quotient+2,w
  5905     1F23  00F2               	movwf	?___lldiv+2
  5906     1F24  087A               	movf	___lldiv@quotient+1,w
  5907     1F25  00F1               	movwf	?___lldiv+1
  5908     1F26  0879               	movf	___lldiv@quotient,w
  5909     1F27  00F0               	movwf	?___lldiv
  5910     1F28                     l310:
  5911     1F28  0008               	return
  5912     1F29                     __end_of___lldiv:
  5913                           
  5914                           	psect	text14
  5915     10D5                     __ptext14:	
  5916 ;; *************** function ___fltol *****************
  5917 ;; Defined at:
  5918 ;;		line 43 in file "C:\Program Files\Microchip\xc8\v2.40\pic\sources\c90\common\fltol.c"
  5919 ;; Parameters:    Size  Location     Type
  5920 ;;  f1              4   49[BANK0 ] unsigned long 
  5921 ;; Auto vars:     Size  Location     Type
  5922 ;;  exp1            1   58[BANK0 ] unsigned char 
  5923 ;;  sign1           1   57[BANK0 ] unsigned char 
  5924 ;; Return value:  Size  Location     Type
  5925 ;;                  4   49[BANK0 ] long 
  5926 ;; Registers used:
  5927 ;;		wreg, status,2, status,0
  5928 ;; Tracked objects:
  5929 ;;		On entry : 0/0
  5930 ;;		On exit  : 0/0
  5931 ;;		Unchanged: 0/0
  5932 ;; Data sizes:     COMMON   BANK0   BANK1   BANK3   BANK2
  5933 ;;      Params:         0       4       0       0       0
  5934 ;;      Locals:         0       2       0       0       0
  5935 ;;      Temps:          0       4       0       0       0
  5936 ;;      Totals:         0      10       0       0       0
  5937 ;;Total ram usage:       10 bytes
  5938 ;; Hardware stack levels used: 1
  5939 ;; This function calls:
  5940 ;;		Nothing
  5941 ;; This function is called by:
  5942 ;;		_sprintf
  5943 ;; This function uses a non-reentrant model
  5944 ;;
  5945                           
  5946     10D5                     ___fltol:	
  5947                           ;psect for function ___fltol
  5948                           
  5949     10D5                     l2877:	
  5950                           ;incstack = 0
  5951                           ; Regs used in ___fltol: [wreg+status,2+status,0]
  5952                           
  5953     10D5  1003               	clrc
  5954     10D6  1283               	bcf	3,5	;RP0=0, select bank0
  5955     10D7  1303               	bcf	3,6	;RP1=0, select bank0
  5956     10D8  0D53               	rlf	___fltol@f1+2,w
  5957     10D9  0D54               	rlf	___fltol@f1+3,w
  5958     10DA  00DA               	movwf	___fltol@exp1
  5959     10DB  085A               	movf	___fltol@exp1,w
  5960     10DC  1D03               	btfss	3,2
  5961     10DD  28DF               	goto	u4861
  5962     10DE  28E0               	goto	u4860
  5963     10DF                     u4861:
  5964     10DF  28E9               	goto	l2883
  5965     10E0                     u4860:
  5966     10E0                     l2879:
  5967     10E0  3000               	movlw	0
  5968     10E1  00D4               	movwf	?___fltol+3
  5969     10E2  3000               	movlw	0
  5970     10E3  00D3               	movwf	?___fltol+2
  5971     10E4  3000               	movlw	0
  5972     10E5  00D2               	movwf	?___fltol+1
  5973     10E6  3000               	movlw	0
  5974     10E7  00D1               	movwf	?___fltol
  5975     10E8  294C               	goto	l477
  5976     10E9                     l2883:
  5977     10E9  0851               	movf	___fltol@f1,w
  5978     10EA  00D5               	movwf	??___fltol
  5979     10EB  0852               	movf	___fltol@f1+1,w
  5980     10EC  00D6               	movwf	??___fltol+1
  5981     10ED  0853               	movf	___fltol@f1+2,w
  5982     10EE  00D7               	movwf	??___fltol+2
  5983     10EF  0854               	movf	___fltol@f1+3,w
  5984     10F0  00D8               	movwf	??___fltol+3
  5985     10F1  301F               	movlw	31
  5986     10F2                     u4875:
  5987     10F2  1003               	clrc
  5988     10F3  0CD8               	rrf	??___fltol+3,f
  5989     10F4  0CD7               	rrf	??___fltol+2,f
  5990     10F5  0CD6               	rrf	??___fltol+1,f
  5991     10F6  0CD5               	rrf	??___fltol,f
  5992     10F7                     u4870:
  5993     10F7  3EFF               	addlw	-1
  5994     10F8  1D03               	skipz
  5995     10F9  28F2               	goto	u4875
  5996     10FA  0855               	movf	??___fltol,w
  5997     10FB  00D9               	movwf	___fltol@sign1
  5998     10FC                     l2885:
  5999     10FC  17D3               	bsf	___fltol@f1+2,7
  6000     10FD                     l2887:
  6001     10FD  30FF               	movlw	255
  6002     10FE  05D1               	andwf	___fltol@f1,f
  6003     10FF  30FF               	movlw	255
  6004     1100  05D2               	andwf	___fltol@f1+1,f
  6005     1101  30FF               	movlw	255
  6006     1102  05D3               	andwf	___fltol@f1+2,f
  6007     1103  3000               	movlw	0
  6008     1104  05D4               	andwf	___fltol@f1+3,f
  6009     1105                     l2889:
  6010     1105  3096               	movlw	150
  6011     1106  02DA               	subwf	___fltol@exp1,f
  6012     1107                     l2891:
  6013     1107  1FDA               	btfss	___fltol@exp1,7
  6014     1108  290A               	goto	u4881
  6015     1109  290B               	goto	u4880
  6016     110A                     u4881:
  6017     110A  2925               	goto	l2901
  6018     110B                     u4880:
  6019     110B                     l2893:
  6020     110B  085A               	movf	___fltol@exp1,w
  6021     110C  3A80               	xorlw	128
  6022     110D  3E97               	addlw	151
  6023     110E  1803               	skipnc
  6024     110F  2911               	goto	u4891
  6025     1110  2912               	goto	u4890
  6026     1111                     u4891:
  6027     1111  2913               	goto	l2899
  6028     1112                     u4890:
  6029     1112  28E0               	goto	l2879
  6030     1113                     l2899:
  6031     1113  3001               	movlw	1
  6032     1114                     u4905:
  6033     1114  1003               	clrc
  6034     1115  0CD4               	rrf	___fltol@f1+3,f
  6035     1116  0CD3               	rrf	___fltol@f1+2,f
  6036     1117  0CD2               	rrf	___fltol@f1+1,f
  6037     1118  0CD1               	rrf	___fltol@f1,f
  6038     1119  3EFF               	addlw	-1
  6039     111A  1D03               	skipz
  6040     111B  2914               	goto	u4905
  6041     111C  3001               	movlw	1
  6042     111D  00D5               	movwf	??___fltol
  6043     111E  0855               	movf	??___fltol,w
  6044     111F  07DA               	addwf	___fltol@exp1,f
  6045     1120  1D03               	btfss	3,2
  6046     1121  2923               	goto	u4911
  6047     1122  2924               	goto	u4910
  6048     1123                     u4911:
  6049     1123  2913               	goto	l2899
  6050     1124                     u4910:
  6051     1124  293C               	goto	l2909
  6052     1125                     l2901:
  6053     1125  3020               	movlw	32
  6054     1126  025A               	subwf	___fltol@exp1,w
  6055     1127  1C03               	skipc
  6056     1128  292A               	goto	u4921
  6057     1129  292B               	goto	u4920
  6058     112A                     u4921:
  6059     112A  2937               	goto	l484
  6060     112B                     u4920:
  6061     112B  28E0               	goto	l2879
  6062     112C                     l2907:
  6063     112C  3001               	movlw	1
  6064     112D  00D5               	movwf	??___fltol
  6065     112E                     u4935:
  6066     112E  1003               	clrc
  6067     112F  0DD1               	rlf	___fltol@f1,f
  6068     1130  0DD2               	rlf	___fltol@f1+1,f
  6069     1131  0DD3               	rlf	___fltol@f1+2,f
  6070     1132  0DD4               	rlf	___fltol@f1+3,f
  6071     1133  0BD5               	decfsz	??___fltol,f
  6072     1134  292E               	goto	u4935
  6073     1135  3001               	movlw	1
  6074     1136  02DA               	subwf	___fltol@exp1,f
  6075     1137                     l484:
  6076     1137  085A               	movf	___fltol@exp1,w
  6077     1138  1D03               	btfss	3,2
  6078     1139  293B               	goto	u4941
  6079     113A  293C               	goto	u4940
  6080     113B                     u4941:
  6081     113B  292C               	goto	l2907
  6082     113C                     u4940:
  6083     113C                     l2909:
  6084     113C  0859               	movf	___fltol@sign1,w
  6085     113D  1903               	btfsc	3,2
  6086     113E  2940               	goto	u4951
  6087     113F  2941               	goto	u4950
  6088     1140                     u4951:
  6089     1140  294C               	goto	l487
  6090     1141                     u4950:
  6091     1141                     l2911:
  6092     1141  09D1               	comf	___fltol@f1,f
  6093     1142  09D2               	comf	___fltol@f1+1,f
  6094     1143  09D3               	comf	___fltol@f1+2,f
  6095     1144  09D4               	comf	___fltol@f1+3,f
  6096     1145  0AD1               	incf	___fltol@f1,f
  6097     1146  1903               	skipnz
  6098     1147  0AD2               	incf	___fltol@f1+1,f
  6099     1148  1903               	skipnz
  6100     1149  0AD3               	incf	___fltol@f1+2,f
  6101     114A  1903               	skipnz
  6102     114B  0AD4               	incf	___fltol@f1+3,f
  6103     114C                     l487:
  6104     114C                     l477:
  6105     114C  0008               	return
  6106     114D                     __end_of___fltol:
  6107                           
  6108                           	psect	text15
  6109     1D3B                     __ptext15:	
  6110 ;; *************** function ___flsub *****************
  6111 ;; Defined at:
  6112 ;;		line 242 in file "C:\Program Files\Microchip\xc8\v2.40\pic\sources\c90\common\sprcadd.c"
  6113 ;; Parameters:    Size  Location     Type
  6114 ;;  a               4   70[BANK0 ] long 
  6115 ;;  b               4   74[BANK0 ] long 
  6116 ;; Auto vars:     Size  Location     Type
  6117 ;;		None
  6118 ;; Return value:  Size  Location     Type
  6119 ;;                  4   70[BANK0 ] long 
  6120 ;; Registers used:
  6121 ;;		wreg, status,2, status,0, btemp+1, pclath, cstack
  6122 ;; Tracked objects:
  6123 ;;		On entry : 0/0
  6124 ;;		On exit  : 0/0
  6125 ;;		Unchanged: 0/0
  6126 ;; Data sizes:     COMMON   BANK0   BANK1   BANK3   BANK2
  6127 ;;      Params:         0       8       0       0       0
  6128 ;;      Locals:         0       0       0       0       0
  6129 ;;      Temps:          0       0       0       0       0
  6130 ;;      Totals:         0       8       0       0       0
  6131 ;;Total ram usage:        8 bytes
  6132 ;; Hardware stack levels used: 1
  6133 ;; Hardware stack levels required when called: 1
  6134 ;; This function calls:
  6135 ;;		___fladd
  6136 ;; This function is called by:
  6137 ;;		_sprintf
  6138 ;; This function uses a non-reentrant model
  6139 ;;
  6140                           
  6141     1D3B                     ___flsub:	
  6142                           ;psect for function ___flsub
  6143                           
  6144     1D3B                     l2933:	
  6145                           ;incstack = 0
  6146                           ; Regs used in ___flsub: [wreg+status,2+status,0+btemp+1+pclath+cstack]
  6147                           
  6148     1D3B  3080               	movlw	128
  6149     1D3C  1283               	bcf	3,5	;RP0=0, select bank0
  6150     1D3D  1303               	bcf	3,6	;RP1=0, select bank0
  6151     1D3E  06E9               	xorwf	___flsub@a+3,f
  6152     1D3F                     l2935:
  6153     1D3F  086D               	movf	___flsub@b+3,w
  6154     1D40  00D5               	movwf	___fladd@b+3
  6155     1D41  086C               	movf	___flsub@b+2,w
  6156     1D42  00D4               	movwf	___fladd@b+2
  6157     1D43  086B               	movf	___flsub@b+1,w
  6158     1D44  00D3               	movwf	___fladd@b+1
  6159     1D45  086A               	movf	___flsub@b,w
  6160     1D46  00D2               	movwf	___fladd@b
  6161     1D47  0869               	movf	___flsub@a+3,w
  6162     1D48  00D9               	movwf	___fladd@a+3
  6163     1D49  0868               	movf	___flsub@a+2,w
  6164     1D4A  00D8               	movwf	___fladd@a+2
  6165     1D4B  0867               	movf	___flsub@a+1,w
  6166     1D4C  00D7               	movwf	___fladd@a+1
  6167     1D4D  0866               	movf	___flsub@a,w
  6168     1D4E  00D6               	movwf	___fladd@a
  6169     1D4F  160A  118A  25A8  160A  158A  	fcall	___fladd
  6170     1D54  1283               	bcf	3,5	;RP0=0, select bank0
  6171     1D55  1303               	bcf	3,6	;RP1=0, select bank0
  6172     1D56  0855               	movf	?___fladd+3,w
  6173     1D57  00E9               	movwf	?___flsub+3
  6174     1D58  0854               	movf	?___fladd+2,w
  6175     1D59  00E8               	movwf	?___flsub+2
  6176     1D5A  0853               	movf	?___fladd+1,w
  6177     1D5B  00E7               	movwf	?___flsub+1
  6178     1D5C  0852               	movf	?___fladd,w
  6179     1D5D  00E6               	movwf	?___flsub
  6180     1D5E                     l647:
  6181     1D5E  0008               	return
  6182     1D5F                     __end_of___flsub:
  6183                           
  6184                           	psect	text16
  6185     15A8                     __ptext16:	
  6186 ;; *************** function ___fladd *****************
  6187 ;; Defined at:
  6188 ;;		line 10 in file "C:\Program Files\Microchip\xc8\v2.40\pic\sources\c90\common\sprcadd.c"
  6189 ;; Parameters:    Size  Location     Type
  6190 ;;  b               4   50[BANK0 ] long 
  6191 ;;  a               4   54[BANK0 ] long 
  6192 ;; Auto vars:     Size  Location     Type
  6193 ;;  grs             1   69[BANK0 ] unsigned char 
  6194 ;;  bexp            1   68[BANK0 ] unsigned char 
  6195 ;;  aexp            1   67[BANK0 ] unsigned char 
  6196 ;;  signs           1   66[BANK0 ] unsigned char 
  6197 ;; Return value:  Size  Location     Type
  6198 ;;                  4   50[BANK0 ] unsigned char 
  6199 ;; Registers used:
  6200 ;;		wreg, status,2, status,0, btemp+1
  6201 ;; Tracked objects:
  6202 ;;		On entry : 0/0
  6203 ;;		On exit  : 0/0
  6204 ;;		Unchanged: 0/0
  6205 ;; Data sizes:     COMMON   BANK0   BANK1   BANK3   BANK2
  6206 ;;      Params:         0       8       0       0       0
  6207 ;;      Locals:         0       4       0       0       0
  6208 ;;      Temps:          0       8       0       0       0
  6209 ;;      Totals:         0      20       0       0       0
  6210 ;;Total ram usage:       20 bytes
  6211 ;; Hardware stack levels used: 1
  6212 ;; This function calls:
  6213 ;;		Nothing
  6214 ;; This function is called by:
  6215 ;;		_sprintf
  6216 ;;		___flsub
  6217 ;; This function uses a non-reentrant model
  6218 ;;
  6219                           
  6220     15A8                     ___fladd:	
  6221                           ;psect for function ___fladd
  6222                           
  6223     15A8                     l2281:	
  6224                           ;incstack = 0
  6225                           ; Regs used in ___fladd: [wreg+status,2+status,0+btemp+1]
  6226                           
  6227     15A8  1283               	bcf	3,5	;RP0=0, select bank0
  6228     15A9  1303               	bcf	3,6	;RP1=0, select bank0
  6229     15AA  0855               	movf	___fladd@b+3,w
  6230     15AB  3980               	andlw	128
  6231     15AC  00E2               	movwf	___fladd@signs
  6232     15AD                     l2283:
  6233     15AD  0855               	movf	___fladd@b+3,w
  6234     15AE  00DA               	movwf	??___fladd
  6235     15AF  075A               	addwf	??___fladd,w
  6236     15B0  00E4               	movwf	___fladd@bexp
  6237     15B1                     l2285:
  6238     15B1  1FD4               	btfss	___fladd@b+2,7
  6239     15B2  2DB4               	goto	u3271
  6240     15B3  2DB5               	goto	u3270
  6241     15B4                     u3271:
  6242     15B4  2DB6               	goto	l2289
  6243     15B5                     u3270:
  6244     15B5                     l2287:
  6245     15B5  1464               	bsf	___fladd@bexp,0
  6246     15B6                     l2289:
  6247     15B6  0864               	movf	___fladd@bexp,w
  6248     15B7  1903               	btfsc	3,2
  6249     15B8  2DBA               	goto	u3281
  6250     15B9  2DBB               	goto	u3280
  6251     15BA                     u3281:
  6252     15BA  2DCB               	goto	l2299
  6253     15BB                     u3280:
  6254     15BB                     l2291:
  6255     15BB  0A64               	incf	___fladd@bexp,w
  6256     15BC  1D03               	btfss	3,2
  6257     15BD  2DBF               	goto	u3291
  6258     15BE  2DC0               	goto	u3290
  6259     15BF                     u3291:
  6260     15BF  2DC8               	goto	l2295
  6261     15C0                     u3290:
  6262     15C0                     l2293:
  6263     15C0  3000               	movlw	0
  6264     15C1  00D5               	movwf	___fladd@b+3
  6265     15C2  3000               	movlw	0
  6266     15C3  00D4               	movwf	___fladd@b+2
  6267     15C4  3000               	movlw	0
  6268     15C5  00D3               	movwf	___fladd@b+1
  6269     15C6  3000               	movlw	0
  6270     15C7  00D2               	movwf	___fladd@b
  6271     15C8                     l2295:
  6272     15C8  17D4               	bsf	___fladd@b+2,7
  6273     15C9                     l2297:
  6274     15C9  01D5               	clrf	___fladd@b+3
  6275     15CA  2DD3               	goto	l2301
  6276     15CB                     l2299:
  6277     15CB  3000               	movlw	0
  6278     15CC  00D5               	movwf	___fladd@b+3
  6279     15CD  3000               	movlw	0
  6280     15CE  00D4               	movwf	___fladd@b+2
  6281     15CF  3000               	movlw	0
  6282     15D0  00D3               	movwf	___fladd@b+1
  6283     15D1  3000               	movlw	0
  6284     15D2  00D2               	movwf	___fladd@b
  6285     15D3                     l2301:
  6286     15D3  0859               	movf	___fladd@a+3,w
  6287     15D4  3980               	andlw	128
  6288     15D5  00E3               	movwf	___fladd@aexp
  6289     15D6                     l2303:
  6290     15D6  0863               	movf	___fladd@aexp,w
  6291     15D7  0662               	xorwf	___fladd@signs,w
  6292     15D8  1903               	skipnz
  6293     15D9  2DDB               	goto	u3301
  6294     15DA  2DDC               	goto	u3300
  6295     15DB                     u3301:
  6296     15DB  2DDD               	goto	l2307
  6297     15DC                     u3300:
  6298     15DC                     l2305:
  6299     15DC  1762               	bsf	___fladd@signs,6
  6300     15DD                     l2307:
  6301     15DD  0859               	movf	___fladd@a+3,w
  6302     15DE  00DA               	movwf	??___fladd
  6303     15DF  075A               	addwf	??___fladd,w
  6304     15E0  00E3               	movwf	___fladd@aexp
  6305     15E1                     l2309:
  6306     15E1  1FD8               	btfss	___fladd@a+2,7
  6307     15E2  2DE4               	goto	u3311
  6308     15E3  2DE5               	goto	u3310
  6309     15E4                     u3311:
  6310     15E4  2DE6               	goto	l2313
  6311     15E5                     u3310:
  6312     15E5                     l2311:
  6313     15E5  1463               	bsf	___fladd@aexp,0
  6314     15E6                     l2313:
  6315     15E6  0863               	movf	___fladd@aexp,w
  6316     15E7  1903               	btfsc	3,2
  6317     15E8  2DEA               	goto	u3321
  6318     15E9  2DEB               	goto	u3320
  6319     15EA                     u3321:
  6320     15EA  2DFB               	goto	l2323
  6321     15EB                     u3320:
  6322     15EB                     l2315:
  6323     15EB  0A63               	incf	___fladd@aexp,w
  6324     15EC  1D03               	btfss	3,2
  6325     15ED  2DEF               	goto	u3331
  6326     15EE  2DF0               	goto	u3330
  6327     15EF                     u3331:
  6328     15EF  2DF8               	goto	l2319
  6329     15F0                     u3330:
  6330     15F0                     l2317:
  6331     15F0  3000               	movlw	0
  6332     15F1  00D9               	movwf	___fladd@a+3
  6333     15F2  3000               	movlw	0
  6334     15F3  00D8               	movwf	___fladd@a+2
  6335     15F4  3000               	movlw	0
  6336     15F5  00D7               	movwf	___fladd@a+1
  6337     15F6  3000               	movlw	0
  6338     15F7  00D6               	movwf	___fladd@a
  6339     15F8                     l2319:
  6340     15F8  17D8               	bsf	___fladd@a+2,7
  6341     15F9                     l2321:
  6342     15F9  01D9               	clrf	___fladd@a+3
  6343     15FA  2E03               	goto	l601
  6344     15FB                     l2323:
  6345     15FB  3000               	movlw	0
  6346     15FC  00D9               	movwf	___fladd@a+3
  6347     15FD  3000               	movlw	0
  6348     15FE  00D8               	movwf	___fladd@a+2
  6349     15FF  3000               	movlw	0
  6350     1600  00D7               	movwf	___fladd@a+1
  6351     1601  3000               	movlw	0
  6352     1602  00D6               	movwf	___fladd@a
  6353     1603                     l601:
  6354     1603  0864               	movf	___fladd@bexp,w
  6355     1604  0263               	subwf	___fladd@aexp,w
  6356     1605  1803               	skipnc
  6357     1606  2E08               	goto	u3341
  6358     1607  2E09               	goto	u3340
  6359     1608                     u3341:
  6360     1608  2E2F               	goto	l2359
  6361     1609                     u3340:
  6362     1609                     l2325:
  6363     1609  1F62               	btfss	___fladd@signs,6
  6364     160A  2E0C               	goto	u3351
  6365     160B  2E0D               	goto	u3350
  6366     160C                     u3351:
  6367     160C  2E11               	goto	l2329
  6368     160D                     u3350:
  6369     160D                     l2327:
  6370     160D  3080               	movlw	128
  6371     160E  00DA               	movwf	??___fladd
  6372     160F  085A               	movf	??___fladd,w
  6373     1610  06E2               	xorwf	___fladd@signs,f
  6374     1611                     l2329:
  6375     1611  0864               	movf	___fladd@bexp,w
  6376     1612  00E5               	movwf	___fladd@grs
  6377     1613                     l2331:
  6378     1613  0863               	movf	___fladd@aexp,w
  6379     1614  00E4               	movwf	___fladd@bexp
  6380     1615                     l2333:
  6381     1615  0865               	movf	___fladd@grs,w
  6382     1616  00E3               	movwf	___fladd@aexp
  6383     1617                     l2335:
  6384     1617  0852               	movf	___fladd@b,w
  6385     1618  00E5               	movwf	___fladd@grs
  6386     1619                     l2337:
  6387     1619  0856               	movf	___fladd@a,w
  6388     161A  00D2               	movwf	___fladd@b
  6389     161B                     l2339:
  6390     161B  0865               	movf	___fladd@grs,w
  6391     161C  00D6               	movwf	___fladd@a
  6392     161D                     l2341:
  6393     161D  0853               	movf	___fladd@b+1,w
  6394     161E  00E5               	movwf	___fladd@grs
  6395     161F                     l2343:
  6396     161F  0857               	movf	___fladd@a+1,w
  6397     1620  00D3               	movwf	___fladd@b+1
  6398     1621                     l2345:
  6399     1621  0865               	movf	___fladd@grs,w
  6400     1622  00D7               	movwf	___fladd@a+1
  6401     1623                     l2347:
  6402     1623  0854               	movf	___fladd@b+2,w
  6403     1624  00E5               	movwf	___fladd@grs
  6404     1625                     l2349:
  6405     1625  0858               	movf	___fladd@a+2,w
  6406     1626  00D4               	movwf	___fladd@b+2
  6407     1627                     l2351:
  6408     1627  0865               	movf	___fladd@grs,w
  6409     1628  00D8               	movwf	___fladd@a+2
  6410     1629                     l2353:
  6411     1629  0855               	movf	___fladd@b+3,w
  6412     162A  00E5               	movwf	___fladd@grs
  6413     162B                     l2355:
  6414     162B  0859               	movf	___fladd@a+3,w
  6415     162C  00D5               	movwf	___fladd@b+3
  6416     162D                     l2357:
  6417     162D  0865               	movf	___fladd@grs,w
  6418     162E  00D9               	movwf	___fladd@a+3
  6419     162F                     l2359:
  6420     162F  01E5               	clrf	___fladd@grs
  6421     1630                     l2361:
  6422     1630  0863               	movf	___fladd@aexp,w
  6423     1631  00DA               	movwf	??___fladd
  6424     1632  01DB               	clrf	??___fladd+1
  6425     1633  085B               	movf	??___fladd+1,w
  6426     1634  00DD               	movwf	??___fladd+3
  6427     1635  0864               	movf	___fladd@bexp,w
  6428     1636  025A               	subwf	??___fladd,w
  6429     1637  00DC               	movwf	??___fladd+2
  6430     1638  1C03               	skipc
  6431     1639  03DD               	decf	??___fladd+3,f
  6432     163A  085D               	movf	??___fladd+3,w
  6433     163B  3A80               	xorlw	128
  6434     163C  00FF               	movwf	btemp+1
  6435     163D  3080               	movlw	128
  6436     163E  027F               	subwf	btemp+1,w
  6437     163F  1D03               	skipz
  6438     1640  2E43               	goto	u3365
  6439     1641  301A               	movlw	26
  6440     1642  025C               	subwf	??___fladd+2,w
  6441     1643                     u3365:
  6442     1643  1C03               	skipc
  6443     1644  2E46               	goto	u3361
  6444     1645  2E47               	goto	u3360
  6445     1646                     u3361:
  6446     1646  2E7E               	goto	l2377
  6447     1647                     u3360:
  6448     1647                     l2363:
  6449     1647  1283               	bcf	3,5	;RP0=0, select bank0
  6450     1648  1303               	bcf	3,6	;RP1=0, select bank0
  6451     1649  0855               	movf	___fladd@b+3,w
  6452     164A  0454               	iorwf	___fladd@b+2,w
  6453     164B  0453               	iorwf	___fladd@b+1,w
  6454     164C  0452               	iorwf	___fladd@b,w
  6455     164D  1D03               	skipz
  6456     164E  2E50               	goto	u3371
  6457     164F  2E52               	goto	u3370
  6458     1650                     u3371:
  6459     1650  3001               	movlw	1
  6460     1651  2E53               	goto	u3380
  6461     1652                     u3370:
  6462     1652  3000               	movlw	0
  6463     1653                     u3380:
  6464     1653  00E5               	movwf	___fladd@grs
  6465     1654  3000               	movlw	0
  6466     1655  00D5               	movwf	___fladd@b+3
  6467     1656  3000               	movlw	0
  6468     1657  00D4               	movwf	___fladd@b+2
  6469     1658  3000               	movlw	0
  6470     1659  00D3               	movwf	___fladd@b+1
  6471     165A  3000               	movlw	0
  6472     165B  00D2               	movwf	___fladd@b
  6473     165C  0863               	movf	___fladd@aexp,w
  6474     165D  00E4               	movwf	___fladd@bexp
  6475     165E  2E86               	goto	l605
  6476     165F                     l607:
  6477     165F  1C65               	btfss	___fladd@grs,0
  6478     1660  2E62               	goto	u3391
  6479     1661  2E63               	goto	u3390
  6480     1662                     u3391:
  6481     1662  2E6A               	goto	l2367
  6482     1663                     u3390:
  6483     1663                     l2365:
  6484     1663  0865               	movf	___fladd@grs,w
  6485     1664  00DA               	movwf	??___fladd
  6486     1665  1003               	clrc
  6487     1666  0C5A               	rrf	??___fladd,w
  6488     1667  3801               	iorlw	1
  6489     1668  00E5               	movwf	___fladd@grs
  6490     1669  2E6C               	goto	l2369
  6491     166A                     l2367:
  6492     166A  1003               	clrc
  6493     166B  0CE5               	rrf	___fladd@grs,f
  6494     166C                     l2369:
  6495     166C  1C52               	btfss	___fladd@b,0
  6496     166D  2E6F               	goto	u3401
  6497     166E  2E70               	goto	u3400
  6498     166F                     u3401:
  6499     166F  2E71               	goto	l2373
  6500     1670                     u3400:
  6501     1670                     l2371:
  6502     1670  17E5               	bsf	___fladd@grs,7
  6503     1671                     l2373:
  6504     1671  3001               	movlw	1
  6505     1672  00DA               	movwf	??___fladd
  6506     1673                     u3415:
  6507     1673  0D55               	rlf	___fladd@b+3,w
  6508     1674  0CD5               	rrf	___fladd@b+3,f
  6509     1675  0CD4               	rrf	___fladd@b+2,f
  6510     1676  0CD3               	rrf	___fladd@b+1,f
  6511     1677  0CD2               	rrf	___fladd@b,f
  6512     1678  0BDA               	decfsz	??___fladd& (0+127),f
  6513     1679  2E73               	goto	u3415
  6514     167A                     l2375:
  6515     167A  3001               	movlw	1
  6516     167B  00DA               	movwf	??___fladd
  6517     167C  085A               	movf	??___fladd,w
  6518     167D  07E4               	addwf	___fladd@bexp,f
  6519     167E                     l2377:
  6520     167E  1283               	bcf	3,5	;RP0=0, select bank0
  6521     167F  1303               	bcf	3,6	;RP1=0, select bank0
  6522     1680  0863               	movf	___fladd@aexp,w
  6523     1681  0264               	subwf	___fladd@bexp,w
  6524     1682  1C03               	skipc
  6525     1683  2E85               	goto	u3421
  6526     1684  2E86               	goto	u3420
  6527     1685                     u3421:
  6528     1685  2E5F               	goto	l607
  6529     1686                     u3420:
  6530     1686                     l605:
  6531     1686  1B62               	btfsc	___fladd@signs,6
  6532     1687  2E89               	goto	u3431
  6533     1688  2E8A               	goto	u3430
  6534     1689                     u3431:
  6535     1689  2ED3               	goto	l2403
  6536     168A                     u3430:
  6537     168A                     l2379:
  6538     168A  0864               	movf	___fladd@bexp,w
  6539     168B  1D03               	btfss	3,2
  6540     168C  2E8E               	goto	u3441
  6541     168D  2E8F               	goto	u3440
  6542     168E                     u3441:
  6543     168E  2E98               	goto	l2385
  6544     168F                     u3440:
  6545     168F                     l2381:
  6546     168F  3000               	movlw	0
  6547     1690  00D5               	movwf	?___fladd+3
  6548     1691  3000               	movlw	0
  6549     1692  00D4               	movwf	?___fladd+2
  6550     1693  3000               	movlw	0
  6551     1694  00D3               	movwf	?___fladd+1
  6552     1695  3000               	movlw	0
  6553     1696  00D2               	movwf	?___fladd
  6554     1697  2FFF               	goto	l614
  6555     1698                     l2385:
  6556     1698  0856               	movf	___fladd@a,w
  6557     1699  07D2               	addwf	___fladd@b,f
  6558     169A  0857               	movf	___fladd@a+1,w
  6559     169B  1103               	clrz
  6560     169C  1803               	skipnc
  6561     169D  3E01               	addlw	1
  6562     169E  1903               	skipnz
  6563     169F  2EA1               	goto	u3451
  6564     16A0  07D3               	addwf	___fladd@b+1,f
  6565     16A1                     u3451:
  6566     16A1  0858               	movf	___fladd@a+2,w
  6567     16A2  1103               	clrz
  6568     16A3  1803               	skipnc
  6569     16A4  3E01               	addlw	1
  6570     16A5  1903               	skipnz
  6571     16A6  2EA8               	goto	u3452
  6572     16A7  07D4               	addwf	___fladd@b+2,f
  6573     16A8                     u3452:
  6574     16A8  0859               	movf	___fladd@a+3,w
  6575     16A9  1103               	clrz
  6576     16AA  1803               	skipnc
  6577     16AB  3E01               	addlw	1
  6578     16AC  1903               	skipnz
  6579     16AD  2EAF               	goto	u3453
  6580     16AE  07D5               	addwf	___fladd@b+3,f
  6581     16AF                     u3453:
  6582     16AF                     l2387:
  6583     16AF  1C55               	btfss	___fladd@b+3,0
  6584     16B0  2EB2               	goto	u3461
  6585     16B1  2EB3               	goto	u3460
  6586     16B2                     u3461:
  6587     16B2  2F87               	goto	l2437
  6588     16B3                     u3460:
  6589     16B3                     l2389:
  6590     16B3  1C65               	btfss	___fladd@grs,0
  6591     16B4  2EB6               	goto	u3471
  6592     16B5  2EB7               	goto	u3470
  6593     16B6                     u3471:
  6594     16B6  2EBE               	goto	l2393
  6595     16B7                     u3470:
  6596     16B7                     l2391:
  6597     16B7  0865               	movf	___fladd@grs,w
  6598     16B8  00DA               	movwf	??___fladd
  6599     16B9  1003               	clrc
  6600     16BA  0C5A               	rrf	??___fladd,w
  6601     16BB  3801               	iorlw	1
  6602     16BC  00E5               	movwf	___fladd@grs
  6603     16BD  2EC0               	goto	l2395
  6604     16BE                     l2393:
  6605     16BE  1003               	clrc
  6606     16BF  0CE5               	rrf	___fladd@grs,f
  6607     16C0                     l2395:
  6608     16C0  1C52               	btfss	___fladd@b,0
  6609     16C1  2EC3               	goto	u3481
  6610     16C2  2EC4               	goto	u3480
  6611     16C3                     u3481:
  6612     16C3  2EC5               	goto	l2399
  6613     16C4                     u3480:
  6614     16C4                     l2397:
  6615     16C4  17E5               	bsf	___fladd@grs,7
  6616     16C5                     l2399:
  6617     16C5  3001               	movlw	1
  6618     16C6  00DA               	movwf	??___fladd
  6619     16C7                     u3495:
  6620     16C7  0D55               	rlf	___fladd@b+3,w
  6621     16C8  0CD5               	rrf	___fladd@b+3,f
  6622     16C9  0CD4               	rrf	___fladd@b+2,f
  6623     16CA  0CD3               	rrf	___fladd@b+1,f
  6624     16CB  0CD2               	rrf	___fladd@b,f
  6625     16CC  0BDA               	decfsz	??___fladd& (0+127),f
  6626     16CD  2EC7               	goto	u3495
  6627     16CE                     l2401:
  6628     16CE  3001               	movlw	1
  6629     16CF  00DA               	movwf	??___fladd
  6630     16D0  085A               	movf	??___fladd,w
  6631     16D1  07E4               	addwf	___fladd@bexp,f
  6632     16D2  2F87               	goto	l2437
  6633     16D3                     l2403:
  6634     16D3  0855               	movf	___fladd@b+3,w
  6635     16D4  3A80               	xorlw	128
  6636     16D5  00FF               	movwf	btemp+1
  6637     16D6  0859               	movf	___fladd@a+3,w
  6638     16D7  3A80               	xorlw	128
  6639     16D8  027F               	subwf	btemp+1,w
  6640     16D9  1D03               	skipz
  6641     16DA  2EE5               	goto	u3503
  6642     16DB  0858               	movf	___fladd@a+2,w
  6643     16DC  0254               	subwf	___fladd@b+2,w
  6644     16DD  1D03               	skipz
  6645     16DE  2EE5               	goto	u3503
  6646     16DF  0857               	movf	___fladd@a+1,w
  6647     16E0  0253               	subwf	___fladd@b+1,w
  6648     16E1  1D03               	skipz
  6649     16E2  2EE5               	goto	u3503
  6650     16E3  0856               	movf	___fladd@a,w
  6651     16E4  0252               	subwf	___fladd@b,w
  6652     16E5                     u3503:
  6653     16E5  1803               	skipnc
  6654     16E6  2EE8               	goto	u3501
  6655     16E7  2EE9               	goto	u3500
  6656     16E8                     u3501:
  6657     16E8  2F41               	goto	l2413
  6658     16E9                     u3500:
  6659     16E9                     l2405:
  6660     16E9  30FF               	movlw	255
  6661     16EA  00DA               	movwf	??___fladd
  6662     16EB  30FF               	movlw	255
  6663     16EC  00DB               	movwf	??___fladd+1
  6664     16ED  30FF               	movlw	255
  6665     16EE  00DC               	movwf	??___fladd+2
  6666     16EF  30FF               	movlw	255
  6667     16F0  00DD               	movwf	??___fladd+3
  6668     16F1  0856               	movf	___fladd@a,w
  6669     16F2  00DE               	movwf	??___fladd+4
  6670     16F3  0857               	movf	___fladd@a+1,w
  6671     16F4  00DF               	movwf	??___fladd+5
  6672     16F5  0858               	movf	___fladd@a+2,w
  6673     16F6  00E0               	movwf	??___fladd+6
  6674     16F7  0859               	movf	___fladd@a+3,w
  6675     16F8  00E1               	movwf	??___fladd+7
  6676     16F9  0852               	movf	___fladd@b,w
  6677     16FA  02DE               	subwf	??___fladd+4,f
  6678     16FB  0853               	movf	___fladd@b+1,w
  6679     16FC  1C03               	skipc
  6680     16FD  0F53               	incfsz	___fladd@b+1,w
  6681     16FE  2F00               	goto	u3511
  6682     16FF  2F01               	goto	u3512
  6683     1700                     u3511:
  6684     1700  02DF               	subwf	??___fladd+5,f
  6685     1701                     u3512:
  6686     1701  0854               	movf	___fladd@b+2,w
  6687     1702  1C03               	skipc
  6688     1703  0F54               	incfsz	___fladd@b+2,w
  6689     1704  2F06               	goto	u3513
  6690     1705  2F07               	goto	u3514
  6691     1706                     u3513:
  6692     1706  02E0               	subwf	??___fladd+6,f
  6693     1707                     u3514:
  6694     1707  0855               	movf	___fladd@b+3,w
  6695     1708  1C03               	skipc
  6696     1709  0F55               	incfsz	___fladd@b+3,w
  6697     170A  2F0C               	goto	u3515
  6698     170B  2F0D               	goto	u3516
  6699     170C                     u3515:
  6700     170C  02E1               	subwf	??___fladd+7,f
  6701     170D                     u3516:
  6702     170D  085E               	movf	??___fladd+4,w
  6703     170E  07DA               	addwf	??___fladd,f
  6704     170F  085F               	movf	??___fladd+5,w
  6705     1710  1803               	skipnc
  6706     1711  0F5F               	incfsz	??___fladd+5,w
  6707     1712  2F14               	goto	u3520
  6708     1713  2F15               	goto	u3521
  6709     1714                     u3520:
  6710     1714  07DB               	addwf	??___fladd+1,f
  6711     1715                     u3521:
  6712     1715  0860               	movf	??___fladd+6,w
  6713     1716  1803               	skipnc
  6714     1717  0F60               	incfsz	??___fladd+6,w
  6715     1718  2F1A               	goto	u3522
  6716     1719  2F1B               	goto	u3523
  6717     171A                     u3522:
  6718     171A  07DC               	addwf	??___fladd+2,f
  6719     171B                     u3523:
  6720     171B  0861               	movf	??___fladd+7,w
  6721     171C  1803               	skipnc
  6722     171D  0A61               	incf	??___fladd+7,w
  6723     171E  07DD               	addwf	??___fladd+3,f
  6724     171F  085D               	movf	??___fladd+3,w
  6725     1720  00D5               	movwf	___fladd@b+3
  6726     1721  085C               	movf	??___fladd+2,w
  6727     1722  00D4               	movwf	___fladd@b+2
  6728     1723  085B               	movf	??___fladd+1,w
  6729     1724  00D3               	movwf	___fladd@b+1
  6730     1725  085A               	movf	??___fladd,w
  6731     1726  00D2               	movwf	___fladd@b
  6732     1727                     l2407:
  6733     1727  3080               	movlw	128
  6734     1728  00DA               	movwf	??___fladd
  6735     1729  085A               	movf	??___fladd,w
  6736     172A  06E2               	xorwf	___fladd@signs,f
  6737     172B  09E5               	comf	___fladd@grs,f
  6738     172C  0AE5               	incf	___fladd@grs,f
  6739     172D                     l2409:
  6740     172D  0865               	movf	___fladd@grs,w
  6741     172E  1D03               	btfss	3,2
  6742     172F  2F31               	goto	u3531
  6743     1730  2F32               	goto	u3530
  6744     1731                     u3531:
  6745     1731  2F4F               	goto	l622
  6746     1732                     u3530:
  6747     1732                     l2411:
  6748     1732  3001               	movlw	1
  6749     1733  07D2               	addwf	___fladd@b,f
  6750     1734  3000               	movlw	0
  6751     1735  1803               	skipnc
  6752     1736  3001               	movlw	1
  6753     1737  07D3               	addwf	___fladd@b+1,f
  6754     1738  3000               	movlw	0
  6755     1739  1803               	skipnc
  6756     173A  3001               	movlw	1
  6757     173B  07D4               	addwf	___fladd@b+2,f
  6758     173C  3000               	movlw	0
  6759     173D  1803               	skipnc
  6760     173E  3001               	movlw	1
  6761     173F  07D5               	addwf	___fladd@b+3,f
  6762     1740  2F4F               	goto	l622
  6763     1741                     l2413:
  6764     1741  0856               	movf	___fladd@a,w
  6765     1742  02D2               	subwf	___fladd@b,f
  6766     1743  0857               	movf	___fladd@a+1,w
  6767     1744  1C03               	skipc
  6768     1745  0F57               	incfsz	___fladd@a+1,w
  6769     1746  02D3               	subwf	___fladd@b+1,f
  6770     1747  0858               	movf	___fladd@a+2,w
  6771     1748  1C03               	skipc
  6772     1749  0F58               	incfsz	___fladd@a+2,w
  6773     174A  02D4               	subwf	___fladd@b+2,f
  6774     174B  0859               	movf	___fladd@a+3,w
  6775     174C  1C03               	skipc
  6776     174D  0F59               	incfsz	___fladd@a+3,w
  6777     174E  02D5               	subwf	___fladd@b+3,f
  6778     174F                     l622:
  6779     174F  0855               	movf	___fladd@b+3,w
  6780     1750  0454               	iorwf	___fladd@b+2,w
  6781     1751  0453               	iorwf	___fladd@b+1,w
  6782     1752  0452               	iorwf	___fladd@b,w
  6783     1753  1D03               	skipz
  6784     1754  2F56               	goto	u3541
  6785     1755  2F57               	goto	u3540
  6786     1756                     u3541:
  6787     1756  2F83               	goto	l2435
  6788     1757                     u3540:
  6789     1757                     l2415:
  6790     1757  0865               	movf	___fladd@grs,w
  6791     1758  1D03               	btfss	3,2
  6792     1759  2F5B               	goto	u3551
  6793     175A  2F5C               	goto	u3550
  6794     175B                     u3551:
  6795     175B  2F83               	goto	l2435
  6796     175C                     u3550:
  6797     175C                     l2417:
  6798     175C  3000               	movlw	0
  6799     175D  00D5               	movwf	?___fladd+3
  6800     175E  3000               	movlw	0
  6801     175F  00D4               	movwf	?___fladd+2
  6802     1760  3000               	movlw	0
  6803     1761  00D3               	movwf	?___fladd+1
  6804     1762  3000               	movlw	0
  6805     1763  00D2               	movwf	?___fladd
  6806     1764  2FFF               	goto	l614
  6807     1765                     l2421:
  6808     1765  3001               	movlw	1
  6809     1766  00DA               	movwf	??___fladd
  6810     1767                     u3565:
  6811     1767  1003               	clrc
  6812     1768  0DD2               	rlf	___fladd@b,f
  6813     1769  0DD3               	rlf	___fladd@b+1,f
  6814     176A  0DD4               	rlf	___fladd@b+2,f
  6815     176B  0DD5               	rlf	___fladd@b+3,f
  6816     176C  0BDA               	decfsz	??___fladd,f
  6817     176D  2F67               	goto	u3565
  6818     176E                     l2423:
  6819     176E  1FE5               	btfss	___fladd@grs,7
  6820     176F  2F71               	goto	u3571
  6821     1770  2F72               	goto	u3570
  6822     1771                     u3571:
  6823     1771  2F73               	goto	l626
  6824     1772                     u3570:
  6825     1772                     l2425:
  6826     1772  1452               	bsf	___fladd@b,0
  6827     1773                     l626:
  6828     1773  1C65               	btfss	___fladd@grs,0
  6829     1774  2F76               	goto	u3581
  6830     1775  2F77               	goto	u3580
  6831     1776                     u3581:
  6832     1776  2F7A               	goto	l2429
  6833     1777                     u3580:
  6834     1777                     l2427:
  6835     1777  1403               	setc
  6836     1778  0DE5               	rlf	___fladd@grs,f
  6837     1779  2F7C               	goto	l2431
  6838     177A                     l2429:
  6839     177A  1003               	clrc
  6840     177B  0DE5               	rlf	___fladd@grs,f
  6841     177C                     l2431:
  6842     177C  0864               	movf	___fladd@bexp,w
  6843     177D  1903               	btfsc	3,2
  6844     177E  2F80               	goto	u3591
  6845     177F  2F81               	goto	u3590
  6846     1780                     u3591:
  6847     1780  2F83               	goto	l2435
  6848     1781                     u3590:
  6849     1781                     l2433:
  6850     1781  3001               	movlw	1
  6851     1782  02E4               	subwf	___fladd@bexp,f
  6852     1783                     l2435:
  6853     1783  1FD4               	btfss	___fladd@b+2,7
  6854     1784  2F86               	goto	u3601
  6855     1785  2F87               	goto	u3600
  6856     1786                     u3601:
  6857     1786  2F65               	goto	l2421
  6858     1787                     u3600:
  6859     1787                     l2437:
  6860     1787  01E3               	clrf	___fladd@aexp
  6861     1788                     l2439:
  6862     1788  1FE5               	btfss	___fladd@grs,7
  6863     1789  2F8B               	goto	u3611
  6864     178A  2F8C               	goto	u3610
  6865     178B                     u3611:
  6866     178B  2F9A               	goto	l2447
  6867     178C                     u3610:
  6868     178C                     l2441:
  6869     178C  0865               	movf	___fladd@grs,w
  6870     178D  397F               	andlw	127
  6871     178E  1903               	btfsc	3,2
  6872     178F  2F91               	goto	u3621
  6873     1790  2F92               	goto	u3620
  6874     1791                     u3621:
  6875     1791  2F95               	goto	l632
  6876     1792                     u3620:
  6877     1792                     l2443:
  6878     1792  01E3               	clrf	___fladd@aexp
  6879     1793  0AE3               	incf	___fladd@aexp,f
  6880     1794  2F9A               	goto	l2447
  6881     1795                     l632:
  6882     1795  1C52               	btfss	___fladd@b,0
  6883     1796  2F98               	goto	u3631
  6884     1797  2F99               	goto	u3630
  6885     1798                     u3631:
  6886     1798  2F9A               	goto	l2447
  6887     1799                     u3630:
  6888     1799  2F92               	goto	l2443
  6889     179A                     l2447:
  6890     179A  0863               	movf	___fladd@aexp,w
  6891     179B  1903               	btfsc	3,2
  6892     179C  2F9E               	goto	u3641
  6893     179D  2F9F               	goto	u3640
  6894     179E                     u3641:
  6895     179E  2FD3               	goto	l635
  6896     179F                     u3640:
  6897     179F                     l2449:
  6898     179F  3001               	movlw	1
  6899     17A0  07D2               	addwf	___fladd@b,f
  6900     17A1  3000               	movlw	0
  6901     17A2  1803               	skipnc
  6902     17A3  3001               	movlw	1
  6903     17A4  07D3               	addwf	___fladd@b+1,f
  6904     17A5  3000               	movlw	0
  6905     17A6  1803               	skipnc
  6906     17A7  3001               	movlw	1
  6907     17A8  07D4               	addwf	___fladd@b+2,f
  6908     17A9  3000               	movlw	0
  6909     17AA  1803               	skipnc
  6910     17AB  3001               	movlw	1
  6911     17AC  07D5               	addwf	___fladd@b+3,f
  6912     17AD                     l2451:
  6913     17AD  1C55               	btfss	___fladd@b+3,0
  6914     17AE  2FB0               	goto	u3651
  6915     17AF  2FB1               	goto	u3650
  6916     17B0                     u3651:
  6917     17B0  2FD3               	goto	l635
  6918     17B1                     u3650:
  6919     17B1                     l2453:
  6920     17B1  0852               	movf	___fladd@b,w
  6921     17B2  00DA               	movwf	??___fladd
  6922     17B3  0853               	movf	___fladd@b+1,w
  6923     17B4  00DB               	movwf	??___fladd+1
  6924     17B5  0854               	movf	___fladd@b+2,w
  6925     17B6  00DC               	movwf	??___fladd+2
  6926     17B7  0855               	movf	___fladd@b+3,w
  6927     17B8  00DD               	movwf	??___fladd+3
  6928     17B9  3001               	movlw	1
  6929     17BA  00DE               	movwf	??___fladd+4
  6930     17BB                     u3665:
  6931     17BB  0D5D               	rlf	??___fladd+3,w
  6932     17BC  0CDD               	rrf	??___fladd+3,f
  6933     17BD  0CDC               	rrf	??___fladd+2,f
  6934     17BE  0CDB               	rrf	??___fladd+1,f
  6935     17BF  0CDA               	rrf	??___fladd,f
  6936     17C0                     u3660:
  6937     17C0  0BDE               	decfsz	??___fladd+4,f
  6938     17C1  2FBB               	goto	u3665
  6939     17C2  085D               	movf	??___fladd+3,w
  6940     17C3  00D5               	movwf	___fladd@b+3
  6941     17C4  085C               	movf	??___fladd+2,w
  6942     17C5  00D4               	movwf	___fladd@b+2
  6943     17C6  085B               	movf	??___fladd+1,w
  6944     17C7  00D3               	movwf	___fladd@b+1
  6945     17C8  085A               	movf	??___fladd,w
  6946     17C9  00D2               	movwf	___fladd@b
  6947     17CA  0A64               	incf	___fladd@bexp,w
  6948     17CB  1903               	btfsc	3,2
  6949     17CC  2FCE               	goto	u3671
  6950     17CD  2FCF               	goto	u3670
  6951     17CE                     u3671:
  6952     17CE  2FD3               	goto	l635
  6953     17CF                     u3670:
  6954     17CF                     l2455:
  6955     17CF  3001               	movlw	1
  6956     17D0  00DA               	movwf	??___fladd
  6957     17D1  085A               	movf	??___fladd,w
  6958     17D2  07E4               	addwf	___fladd@bexp,f
  6959     17D3                     l635:
  6960     17D3  0A64               	incf	___fladd@bexp,w
  6961     17D4  1903               	btfsc	3,2
  6962     17D5  2FD7               	goto	u3681
  6963     17D6  2FD8               	goto	u3680
  6964     17D7                     u3681:
  6965     17D7  2FDD               	goto	l2459
  6966     17D8                     u3680:
  6967     17D8                     l2457:
  6968     17D8  0864               	movf	___fladd@bexp,w
  6969     17D9  1D03               	btfss	3,2
  6970     17DA  2FDC               	goto	u3691
  6971     17DB  2FDD               	goto	u3690
  6972     17DC                     u3691:
  6973     17DC  2FEB               	goto	l2465
  6974     17DD                     u3690:
  6975     17DD                     l2459:
  6976     17DD  3000               	movlw	0
  6977     17DE  00D5               	movwf	___fladd@b+3
  6978     17DF  3000               	movlw	0
  6979     17E0  00D4               	movwf	___fladd@b+2
  6980     17E1  3000               	movlw	0
  6981     17E2  00D3               	movwf	___fladd@b+1
  6982     17E3  3000               	movlw	0
  6983     17E4  00D2               	movwf	___fladd@b
  6984     17E5                     l2461:
  6985     17E5  0864               	movf	___fladd@bexp,w
  6986     17E6  1D03               	btfss	3,2
  6987     17E7  2FE9               	goto	u3701
  6988     17E8  2FEA               	goto	u3700
  6989     17E9                     u3701:
  6990     17E9  2FEB               	goto	l2465
  6991     17EA                     u3700:
  6992     17EA                     l2463:
  6993     17EA  01E2               	clrf	___fladd@signs
  6994     17EB                     l2465:
  6995     17EB  1C64               	btfss	___fladd@bexp,0
  6996     17EC  2FEE               	goto	u3711
  6997     17ED  2FEF               	goto	u3710
  6998     17EE                     u3711:
  6999     17EE  2FF1               	goto	l2469
  7000     17EF                     u3710:
  7001     17EF                     l2467:
  7002     17EF  17D4               	bsf	___fladd@b+2,7
  7003     17F0  2FF5               	goto	l643
  7004     17F1                     l2469:
  7005     17F1  307F               	movlw	127
  7006     17F2  00DA               	movwf	??___fladd
  7007     17F3  085A               	movf	??___fladd,w
  7008     17F4  05D4               	andwf	___fladd@b+2,f
  7009     17F5                     l643:
  7010     17F5  0864               	movf	___fladd@bexp,w
  7011     17F6  00DA               	movwf	??___fladd
  7012     17F7  1003               	clrc
  7013     17F8  0C5A               	rrf	??___fladd,w
  7014     17F9  00D5               	movwf	___fladd@b+3
  7015     17FA                     l2471:
  7016     17FA  1FE2               	btfss	___fladd@signs,7
  7017     17FB  2FFD               	goto	u3721
  7018     17FC  2FFE               	goto	u3720
  7019     17FD                     u3721:
  7020     17FD  2FFF               	goto	l644
  7021     17FE                     u3720:
  7022     17FE                     l2473:
  7023     17FE  17D5               	bsf	___fladd@b+3,7
  7024     17FF                     l644:
  7025     17FF                     l614:
  7026     17FF  0008               	return
  7027     1800                     __end_of___fladd:
  7028                           
  7029                           	psect	text17
  7030     1CD6                     __ptext17:	
  7031 ;; *************** function ___flneg *****************
  7032 ;; Defined at:
  7033 ;;		line 15 in file "C:\Program Files\Microchip\xc8\v2.40\pic\sources\c90\common\flneg.c"
  7034 ;; Parameters:    Size  Location     Type
  7035 ;;  f1              4    0[COMMON] unsigned char 
  7036 ;; Auto vars:     Size  Location     Type
  7037 ;;		None
  7038 ;; Return value:  Size  Location     Type
  7039 ;;                  4    0[COMMON] unsigned char 
  7040 ;; Registers used:
  7041 ;;		wreg
  7042 ;; Tracked objects:
  7043 ;;		On entry : 0/0
  7044 ;;		On exit  : 0/0
  7045 ;;		Unchanged: 0/0
  7046 ;; Data sizes:     COMMON   BANK0   BANK1   BANK3   BANK2
  7047 ;;      Params:         4       0       0       0       0
  7048 ;;      Locals:         0       0       0       0       0
  7049 ;;      Temps:          0       0       0       0       0
  7050 ;;      Totals:         4       0       0       0       0
  7051 ;;Total ram usage:        4 bytes
  7052 ;; Hardware stack levels used: 1
  7053 ;; This function calls:
  7054 ;;		Nothing
  7055 ;; This function is called by:
  7056 ;;		_sprintf
  7057 ;; This function uses a non-reentrant model
  7058 ;;
  7059                           
  7060     1CD6                     ___flneg:	
  7061                           ;psect for function ___flneg
  7062                           
  7063     1CD6                     l2869:	
  7064                           ;incstack = 0
  7065                           ; Regs used in ___flneg: [wreg]
  7066                           
  7067     1CD6  0873               	movf	___flneg@f1+3,w
  7068     1CD7  0472               	iorwf	___flneg@f1+2,w
  7069     1CD8  0471               	iorwf	___flneg@f1+1,w
  7070     1CD9  0470               	iorwf	___flneg@f1,w
  7071     1CDA  1903               	skipnz
  7072     1CDB  2CDD               	goto	u4851
  7073     1CDC  2CDE               	goto	u4850
  7074     1CDD                     u4851:
  7075     1CDD  2CE0               	goto	l2873
  7076     1CDE                     u4850:
  7077     1CDE                     l2871:
  7078     1CDE  3080               	movlw	128
  7079     1CDF  06F3               	xorwf	___flneg@f1+3,f
  7080     1CE0                     l2873:
  7081     1CE0                     l473:
  7082     1CE0  0008               	return
  7083     1CE1                     __end_of___flneg:
  7084                           
  7085                           	psect	text18
  7086     0803                     __ptext18:	
  7087 ;; *************** function ___flge *****************
  7088 ;; Defined at:
  7089 ;;		line 4 in file "C:\Program Files\Microchip\xc8\v2.40\pic\sources\c90\common\flge.c"
  7090 ;; Parameters:    Size  Location     Type
  7091 ;;  ff1             4    0[COMMON] unsigned char 
  7092 ;;  ff2             4    4[COMMON] unsigned char 
  7093 ;; Auto vars:     Size  Location     Type
  7094 ;;		None
  7095 ;; Return value:  Size  Location     Type
  7096 ;;		None               void
  7097 ;; Registers used:
  7098 ;;		wreg, status,2, status,0
  7099 ;; Tracked objects:
  7100 ;;		On entry : 0/0
  7101 ;;		On exit  : 0/0
  7102 ;;		Unchanged: 0/0
  7103 ;; Data sizes:     COMMON   BANK0   BANK1   BANK3   BANK2
  7104 ;;      Params:         8       0       0       0       0
  7105 ;;      Locals:         0       0       0       0       0
  7106 ;;      Temps:          4       0       0       0       0
  7107 ;;      Totals:        12       0       0       0       0
  7108 ;;Total ram usage:       12 bytes
  7109 ;; Hardware stack levels used: 1
  7110 ;; This function calls:
  7111 ;;		Nothing
  7112 ;; This function is called by:
  7113 ;;		_sprintf
  7114 ;; This function uses a non-reentrant model
  7115 ;;
  7116                           
  7117     0803                     ___flge:	
  7118                           ;psect for function ___flge
  7119                           
  7120     0803                     l2849:	
  7121                           ;incstack = 0
  7122                           ; Regs used in ___flge: [wreg+status,2+status,0]
  7123                           
  7124     0803  3000               	movlw	0
  7125     0804  0570               	andwf	___flge@ff1,w
  7126     0805  00F8               	movwf	??___flge
  7127     0806  3000               	movlw	0
  7128     0807  0571               	andwf	___flge@ff1+1,w
  7129     0808  00F9               	movwf	??___flge+1
  7130     0809  3080               	movlw	128
  7131     080A  0572               	andwf	___flge@ff1+2,w
  7132     080B  00FA               	movwf	??___flge+2
  7133     080C  307F               	movlw	127
  7134     080D  0573               	andwf	___flge@ff1+3,w
  7135     080E  00FB               	movwf	??___flge+3
  7136     080F  087B               	movf	??___flge+3,w
  7137     0810  047A               	iorwf	??___flge+2,w
  7138     0811  0479               	iorwf	??___flge+1,w
  7139     0812  0478               	iorwf	??___flge,w
  7140     0813  1D03               	skipz
  7141     0814  2816               	goto	u4781
  7142     0815  2817               	goto	u4780
  7143     0816                     u4781:
  7144     0816  281F               	goto	l465
  7145     0817                     u4780:
  7146     0817                     l2851:
  7147     0817  3000               	movlw	0
  7148     0818  00F3               	movwf	___flge@ff1+3
  7149     0819  3000               	movlw	0
  7150     081A  00F2               	movwf	___flge@ff1+2
  7151     081B  3000               	movlw	0
  7152     081C  00F1               	movwf	___flge@ff1+1
  7153     081D  3000               	movlw	0
  7154     081E  00F0               	movwf	___flge@ff1
  7155     081F                     l465:
  7156     081F  3000               	movlw	0
  7157     0820  0574               	andwf	___flge@ff2,w
  7158     0821  00F8               	movwf	??___flge
  7159     0822  3000               	movlw	0
  7160     0823  0575               	andwf	___flge@ff2+1,w
  7161     0824  00F9               	movwf	??___flge+1
  7162     0825  3080               	movlw	128
  7163     0826  0576               	andwf	___flge@ff2+2,w
  7164     0827  00FA               	movwf	??___flge+2
  7165     0828  307F               	movlw	127
  7166     0829  0577               	andwf	___flge@ff2+3,w
  7167     082A  00FB               	movwf	??___flge+3
  7168     082B  087B               	movf	??___flge+3,w
  7169     082C  047A               	iorwf	??___flge+2,w
  7170     082D  0479               	iorwf	??___flge+1,w
  7171     082E  0478               	iorwf	??___flge,w
  7172     082F  1D03               	skipz
  7173     0830  2832               	goto	u4791
  7174     0831  2833               	goto	u4790
  7175     0832                     u4791:
  7176     0832  283B               	goto	l2855
  7177     0833                     u4790:
  7178     0833                     l2853:
  7179     0833  3000               	movlw	0
  7180     0834  00F7               	movwf	___flge@ff2+3
  7181     0835  3000               	movlw	0
  7182     0836  00F6               	movwf	___flge@ff2+2
  7183     0837  3000               	movlw	0
  7184     0838  00F5               	movwf	___flge@ff2+1
  7185     0839  3000               	movlw	0
  7186     083A  00F4               	movwf	___flge@ff2
  7187     083B                     l2855:
  7188     083B  1FF3               	btfss	___flge@ff1+3,7
  7189     083C  283E               	goto	u4801
  7190     083D  283F               	goto	u4800
  7191     083E                     u4801:
  7192     083E  2863               	goto	l2859
  7193     083F                     u4800:
  7194     083F                     l2857:
  7195     083F  3000               	movlw	0
  7196     0840  00F8               	movwf	??___flge
  7197     0841  3000               	movlw	0
  7198     0842  00F9               	movwf	??___flge+1
  7199     0843  3000               	movlw	0
  7200     0844  00FA               	movwf	??___flge+2
  7201     0845  3080               	movlw	128
  7202     0846  00FB               	movwf	??___flge+3
  7203     0847  0870               	movf	___flge@ff1,w
  7204     0848  02F8               	subwf	??___flge,f
  7205     0849  0871               	movf	___flge@ff1+1,w
  7206     084A  1C03               	skipc
  7207     084B  0F71               	incfsz	___flge@ff1+1,w
  7208     084C  284E               	goto	u4811
  7209     084D  284F               	goto	u4812
  7210     084E                     u4811:
  7211     084E  02F9               	subwf	??___flge+1,f
  7212     084F                     u4812:
  7213     084F  0872               	movf	___flge@ff1+2,w
  7214     0850  1C03               	skipc
  7215     0851  0F72               	incfsz	___flge@ff1+2,w
  7216     0852  2854               	goto	u4813
  7217     0853  2855               	goto	u4814
  7218     0854                     u4813:
  7219     0854  02FA               	subwf	??___flge+2,f
  7220     0855                     u4814:
  7221     0855  0873               	movf	___flge@ff1+3,w
  7222     0856  1C03               	skipc
  7223     0857  0F73               	incfsz	___flge@ff1+3,w
  7224     0858  285A               	goto	u4815
  7225     0859  285B               	goto	u4816
  7226     085A                     u4815:
  7227     085A  02FB               	subwf	??___flge+3,f
  7228     085B                     u4816:
  7229     085B  087B               	movf	??___flge+3,w
  7230     085C  00F3               	movwf	___flge@ff1+3
  7231     085D  087A               	movf	??___flge+2,w
  7232     085E  00F2               	movwf	___flge@ff1+2
  7233     085F  0879               	movf	??___flge+1,w
  7234     0860  00F1               	movwf	___flge@ff1+1
  7235     0861  0878               	movf	??___flge,w
  7236     0862  00F0               	movwf	___flge@ff1
  7237     0863                     l2859:
  7238     0863  1FF7               	btfss	___flge@ff2+3,7
  7239     0864  2866               	goto	u4821
  7240     0865  2867               	goto	u4820
  7241     0866                     u4821:
  7242     0866  288B               	goto	l468
  7243     0867                     u4820:
  7244     0867                     l2861:
  7245     0867  3000               	movlw	0
  7246     0868  00F8               	movwf	??___flge
  7247     0869  3000               	movlw	0
  7248     086A  00F9               	movwf	??___flge+1
  7249     086B  3000               	movlw	0
  7250     086C  00FA               	movwf	??___flge+2
  7251     086D  3080               	movlw	128
  7252     086E  00FB               	movwf	??___flge+3
  7253     086F  0874               	movf	___flge@ff2,w
  7254     0870  02F8               	subwf	??___flge,f
  7255     0871  0875               	movf	___flge@ff2+1,w
  7256     0872  1C03               	skipc
  7257     0873  0F75               	incfsz	___flge@ff2+1,w
  7258     0874  2876               	goto	u4831
  7259     0875  2877               	goto	u4832
  7260     0876                     u4831:
  7261     0876  02F9               	subwf	??___flge+1,f
  7262     0877                     u4832:
  7263     0877  0876               	movf	___flge@ff2+2,w
  7264     0878  1C03               	skipc
  7265     0879  0F76               	incfsz	___flge@ff2+2,w
  7266     087A  287C               	goto	u4833
  7267     087B  287D               	goto	u4834
  7268     087C                     u4833:
  7269     087C  02FA               	subwf	??___flge+2,f
  7270     087D                     u4834:
  7271     087D  0877               	movf	___flge@ff2+3,w
  7272     087E  1C03               	skipc
  7273     087F  0F77               	incfsz	___flge@ff2+3,w
  7274     0880  2882               	goto	u4835
  7275     0881  2883               	goto	u4836
  7276     0882                     u4835:
  7277     0882  02FB               	subwf	??___flge+3,f
  7278     0883                     u4836:
  7279     0883  087B               	movf	??___flge+3,w
  7280     0884  00F7               	movwf	___flge@ff2+3
  7281     0885  087A               	movf	??___flge+2,w
  7282     0886  00F6               	movwf	___flge@ff2+2
  7283     0887  0879               	movf	??___flge+1,w
  7284     0888  00F5               	movwf	___flge@ff2+1
  7285     0889  0878               	movf	??___flge,w
  7286     088A  00F4               	movwf	___flge@ff2
  7287     088B                     l468:
  7288     088B  3080               	movlw	128
  7289     088C  06F3               	xorwf	___flge@ff1+3,f
  7290     088D  3080               	movlw	128
  7291     088E  06F7               	xorwf	___flge@ff2+3,f
  7292     088F  0877               	movf	___flge@ff2+3,w
  7293     0890  0273               	subwf	___flge@ff1+3,w
  7294     0891  1D03               	skipz
  7295     0892  289D               	goto	u4845
  7296     0893  0876               	movf	___flge@ff2+2,w
  7297     0894  0272               	subwf	___flge@ff1+2,w
  7298     0895  1D03               	skipz
  7299     0896  289D               	goto	u4845
  7300     0897  0875               	movf	___flge@ff2+1,w
  7301     0898  0271               	subwf	___flge@ff1+1,w
  7302     0899  1D03               	skipz
  7303     089A  289D               	goto	u4845
  7304     089B  0874               	movf	___flge@ff2,w
  7305     089C  0270               	subwf	___flge@ff1,w
  7306     089D                     u4845:
  7307     089D  1803               	skipnc
  7308     089E  28A0               	goto	u4841
  7309     089F  28A1               	goto	u4840
  7310     08A0                     u4841:
  7311     08A0  28A3               	goto	l2865
  7312     08A1                     u4840:
  7313     08A1                     l2863:
  7314     08A1  1003               	clrc
  7315     08A2  28A4               	goto	l469
  7316     08A3                     l2865:
  7317     08A3  1403               	setc
  7318     08A4                     l469:
  7319     08A4  0008               	return
  7320     08A5                     __end_of___flge:
  7321                           
  7322                           	psect	text19
  7323     1DC8                     __ptext19:	
  7324 ;; *************** function ___fleq *****************
  7325 ;; Defined at:
  7326 ;;		line 4 in file "C:\Program Files\Microchip\xc8\v2.40\pic\sources\c90\common\fleq.c"
  7327 ;; Parameters:    Size  Location     Type
  7328 ;;  ff1             4    0[COMMON] unsigned char 
  7329 ;;  ff2             4    4[COMMON] unsigned char 
  7330 ;; Auto vars:     Size  Location     Type
  7331 ;;		None
  7332 ;; Return value:  Size  Location     Type
  7333 ;;		None               void
  7334 ;; Registers used:
  7335 ;;		wreg, status,2, status,0
  7336 ;; Tracked objects:
  7337 ;;		On entry : 0/0
  7338 ;;		On exit  : 0/0
  7339 ;;		Unchanged: 0/0
  7340 ;; Data sizes:     COMMON   BANK0   BANK1   BANK3   BANK2
  7341 ;;      Params:         8       0       0       0       0
  7342 ;;      Locals:         0       0       0       0       0
  7343 ;;      Temps:          4       0       0       0       0
  7344 ;;      Totals:        12       0       0       0       0
  7345 ;;Total ram usage:       12 bytes
  7346 ;; Hardware stack levels used: 1
  7347 ;; This function calls:
  7348 ;;		Nothing
  7349 ;; This function is called by:
  7350 ;;		_sprintf
  7351 ;; This function uses a non-reentrant model
  7352 ;;
  7353                           
  7354     1DC8                     ___fleq:	
  7355                           ;psect for function ___fleq
  7356                           
  7357     1DC8                     l2837:	
  7358                           ;incstack = 0
  7359                           ; Regs used in ___fleq: [wreg+status,2+status,0]
  7360                           
  7361     1DC8  3000               	movlw	0
  7362     1DC9  0570               	andwf	___fleq@ff1,w
  7363     1DCA  00F8               	movwf	??___fleq
  7364     1DCB  3000               	movlw	0
  7365     1DCC  0571               	andwf	___fleq@ff1+1,w
  7366     1DCD  00F9               	movwf	??___fleq+1
  7367     1DCE  3080               	movlw	128
  7368     1DCF  0572               	andwf	___fleq@ff1+2,w
  7369     1DD0  00FA               	movwf	??___fleq+2
  7370     1DD1  307F               	movlw	127
  7371     1DD2  0573               	andwf	___fleq@ff1+3,w
  7372     1DD3  00FB               	movwf	??___fleq+3
  7373     1DD4  087B               	movf	??___fleq+3,w
  7374     1DD5  047A               	iorwf	??___fleq+2,w
  7375     1DD6  0479               	iorwf	??___fleq+1,w
  7376     1DD7  0478               	iorwf	??___fleq,w
  7377     1DD8  1D03               	skipz
  7378     1DD9  2DDB               	goto	u4751
  7379     1DDA  2DDC               	goto	u4750
  7380     1DDB                     u4751:
  7381     1DDB  2DE4               	goto	l460
  7382     1DDC                     u4750:
  7383     1DDC                     l2839:
  7384     1DDC  3000               	movlw	0
  7385     1DDD  00F3               	movwf	___fleq@ff1+3
  7386     1DDE  3000               	movlw	0
  7387     1DDF  00F2               	movwf	___fleq@ff1+2
  7388     1DE0  3000               	movlw	0
  7389     1DE1  00F1               	movwf	___fleq@ff1+1
  7390     1DE2  3000               	movlw	0
  7391     1DE3  00F0               	movwf	___fleq@ff1
  7392     1DE4                     l460:
  7393     1DE4  3000               	movlw	0
  7394     1DE5  0574               	andwf	___fleq@ff2,w
  7395     1DE6  00F8               	movwf	??___fleq
  7396     1DE7  3000               	movlw	0
  7397     1DE8  0575               	andwf	___fleq@ff2+1,w
  7398     1DE9  00F9               	movwf	??___fleq+1
  7399     1DEA  3080               	movlw	128
  7400     1DEB  0576               	andwf	___fleq@ff2+2,w
  7401     1DEC  00FA               	movwf	??___fleq+2
  7402     1DED  307F               	movlw	127
  7403     1DEE  0577               	andwf	___fleq@ff2+3,w
  7404     1DEF  00FB               	movwf	??___fleq+3
  7405     1DF0  087B               	movf	??___fleq+3,w
  7406     1DF1  047A               	iorwf	??___fleq+2,w
  7407     1DF2  0479               	iorwf	??___fleq+1,w
  7408     1DF3  0478               	iorwf	??___fleq,w
  7409     1DF4  1D03               	skipz
  7410     1DF5  2DF7               	goto	u4761
  7411     1DF6  2DF8               	goto	u4760
  7412     1DF7                     u4761:
  7413     1DF7  2E00               	goto	l461
  7414     1DF8                     u4760:
  7415     1DF8                     l2841:
  7416     1DF8  3000               	movlw	0
  7417     1DF9  00F7               	movwf	___fleq@ff2+3
  7418     1DFA  3000               	movlw	0
  7419     1DFB  00F6               	movwf	___fleq@ff2+2
  7420     1DFC  3000               	movlw	0
  7421     1DFD  00F5               	movwf	___fleq@ff2+1
  7422     1DFE  3000               	movlw	0
  7423     1DFF  00F4               	movwf	___fleq@ff2
  7424     1E00                     l461:
  7425     1E00  0877               	movf	___fleq@ff2+3,w
  7426     1E01  0673               	xorwf	___fleq@ff1+3,w
  7427     1E02  1D03               	skipz
  7428     1E03  2E0E               	goto	u4775
  7429     1E04  0876               	movf	___fleq@ff2+2,w
  7430     1E05  0672               	xorwf	___fleq@ff1+2,w
  7431     1E06  1D03               	skipz
  7432     1E07  2E0E               	goto	u4775
  7433     1E08  0875               	movf	___fleq@ff2+1,w
  7434     1E09  0671               	xorwf	___fleq@ff1+1,w
  7435     1E0A  1D03               	skipz
  7436     1E0B  2E0E               	goto	u4775
  7437     1E0C  0874               	movf	___fleq@ff2,w
  7438     1E0D  0670               	xorwf	___fleq@ff1,w
  7439     1E0E                     u4775:
  7440     1E0E  1903               	skipnz
  7441     1E0F  2E11               	goto	u4771
  7442     1E10  2E12               	goto	u4770
  7443     1E11                     u4771:
  7444     1E11  2E14               	goto	l2845
  7445     1E12                     u4770:
  7446     1E12                     l2843:
  7447     1E12  1003               	clrc
  7448     1E13  2E15               	goto	l462
  7449     1E14                     l2845:
  7450     1E14  1403               	setc
  7451     1E15                     l462:
  7452     1E15  0008               	return
  7453     1E16                     __end_of___fleq:
  7454                           
  7455                           	psect	text20
  7456     1CE1                     __ptext20:	
  7457 ;; *************** function _sendUART *****************
  7458 ;; Defined at:
  7459 ;;		line 19 in file "usart.c"
  7460 ;; Parameters:    Size  Location     Type
  7461 ;;  ch              1    wreg     unsigned char 
  7462 ;; Auto vars:     Size  Location     Type
  7463 ;;  ch              1    0[COMMON] unsigned char 
  7464 ;; Return value:  Size  Location     Type
  7465 ;;                  1    wreg      void 
  7466 ;; Registers used:
  7467 ;;		wreg
  7468 ;; Tracked objects:
  7469 ;;		On entry : 0/0
  7470 ;;		On exit  : 0/0
  7471 ;;		Unchanged: 0/0
  7472 ;; Data sizes:     COMMON   BANK0   BANK1   BANK3   BANK2
  7473 ;;      Params:         0       0       0       0       0
  7474 ;;      Locals:         1       0       0       0       0
  7475 ;;      Temps:          0       0       0       0       0
  7476 ;;      Totals:         1       0       0       0       0
  7477 ;;Total ram usage:        1 bytes
  7478 ;; Hardware stack levels used: 1
  7479 ;; This function calls:
  7480 ;;		Nothing
  7481 ;; This function is called by:
  7482 ;;		_main
  7483 ;; This function uses a non-reentrant model
  7484 ;;
  7485                           
  7486     1CE1                     _sendUART:	
  7487                           ;psect for function _sendUART
  7488                           
  7489                           
  7490                           ;incstack = 0
  7491                           ; Regs used in _sendUART: [wreg]
  7492                           ;sendUART@ch stored from wreg
  7493     1CE1  00F0               	movwf	sendUART@ch
  7494     1CE2                     l3383:
  7495     1CE2                     l52:	
  7496                           ;usart.c: 19: void sendUART(char ch);usart.c: 20: {;usart.c: 22:      while(!TRMT) ;
  7497                           
  7498     1CE2  1683               	bsf	3,5	;RP0=1, select bank1
  7499     1CE3  1303               	bcf	3,6	;RP1=0, select bank1
  7500     1CE4  1C98               	btfss	24,1	;volatile
  7501     1CE5  2CE7               	goto	u5811
  7502     1CE6  2CE8               	goto	u5810
  7503     1CE7                     u5811:
  7504     1CE7  2CE2               	goto	l52
  7505     1CE8                     u5810:
  7506     1CE8                     l3385:
  7507                           
  7508                           ;usart.c: 23:      TXREG=(char)ch;
  7509     1CE8  0870               	movf	sendUART@ch,w
  7510     1CE9  1283               	bcf	3,5	;RP0=0, select bank0
  7511     1CEA  1303               	bcf	3,6	;RP1=0, select bank0
  7512     1CEB  0099               	movwf	25	;volatile
  7513     1CEC                     l55:
  7514     1CEC  0008               	return
  7515     1CED                     __end_of_sendUART:
  7516                           
  7517                           	psect	text21
  7518     114D                     __ptext21:	
  7519 ;; *************** function _measure *****************
  7520 ;; Defined at:
  7521 ;;		line 24 in file "measure.c"
  7522 ;; Parameters:    Size  Location     Type
  7523 ;;		None
  7524 ;; Auto vars:     Size  Location     Type
  7525 ;;  adc_data        4   62[BANK0 ] float 
  7526 ;;  adc_data_raw    2   66[BANK0 ] int 
  7527 ;; Return value:  Size  Location     Type
  7528 ;;                  4   56[BANK0 ] float 
  7529 ;; Registers used:
  7530 ;;		wreg, status,2, status,0, btemp+1, pclath, cstack
  7531 ;; Tracked objects:
  7532 ;;		On entry : 0/0
  7533 ;;		On exit  : 0/0
  7534 ;;		Unchanged: 0/0
  7535 ;; Data sizes:     COMMON   BANK0   BANK1   BANK3   BANK2
  7536 ;;      Params:         0       4       0       0       0
  7537 ;;      Locals:         0       6       0       0       0
  7538 ;;      Temps:          0       2       0       0       0
  7539 ;;      Totals:         0      12       0       0       0
  7540 ;;Total ram usage:       12 bytes
  7541 ;; Hardware stack levels used: 1
  7542 ;; Hardware stack levels required when called: 2
  7543 ;; This function calls:
  7544 ;;		___fldiv
  7545 ;;		___flmul
  7546 ;;		___xxtofl
  7547 ;;		_delay
  7548 ;; This function is called by:
  7549 ;;		_main
  7550 ;; This function uses a non-reentrant model
  7551 ;;
  7552                           
  7553     114D                     _measure:	
  7554                           ;psect for function _measure
  7555                           
  7556     114D                     l3155:	
  7557                           ;incstack = 0
  7558                           ; Regs used in _measure: [wreg+status,2+status,0+btemp+1+pclath+cstack]
  7559                           
  7560     114D                     l3157:
  7561     114D                     l3159:
  7562                           
  7563                           ;measure.c: 28:     ADON = 1;
  7564     114D  1283               	bcf	3,5	;RP0=0, select bank0
  7565     114E  1303               	bcf	3,6	;RP1=0, select bank0
  7566     114F  141F               	bsf	31,0	;volatile
  7567     1150                     l3161:
  7568                           
  7569                           ;measure.c: 29:     delay();
  7570     1150  160A  158A  2525  160A  118A  	fcall	_delay
  7571     1155                     l3163:
  7572                           
  7573                           ;measure.c: 30:     GO = 1;
  7574     1155  1283               	bcf	3,5	;RP0=0, select bank0
  7575     1156  1303               	bcf	3,6	;RP1=0, select bank0
  7576     1157  151F               	bsf	31,2	;volatile
  7577     1158                     l92:	
  7578                           ;measure.c: 31:     while(GO);
  7579                           
  7580     1158  191F               	btfsc	31,2	;volatile
  7581     1159  295B               	goto	u5451
  7582     115A  295C               	goto	u5450
  7583     115B                     u5451:
  7584     115B  2958               	goto	l92
  7585     115C                     u5450:
  7586     115C                     l3165:
  7587                           
  7588                           ;measure.c: 33:          _delay((unsigned long)((10)*(4000000/4000000.0)));
  7589     115C  3002               	movlw	2
  7590     115D  1283               	bcf	3,5	;RP0=0, select bank0
  7591     115E  1303               	bcf	3,6	;RP1=0, select bank0
  7592     115F  00DC               	movwf	??_measure
  7593     1160                     u5847:
  7594     1160  0BDC               	decfsz	??_measure,f
  7595     1161  2960               	goto	u5847
  7596     1162  0000               	nop
  7597     1163                     l3167:
  7598                           
  7599                           ;measure.c: 34:         adc_data_raw = (unsigned int)ADRESH << 8;
  7600     1163  1283               	bcf	3,5	;RP0=0, select bank0
  7601     1164  1303               	bcf	3,6	;RP1=0, select bank0
  7602     1165  081E               	movf	30,w	;volatile
  7603     1166  00DC               	movwf	??_measure
  7604     1167  01DD               	clrf	??_measure+1
  7605     1168  085C               	movf	??_measure,w
  7606     1169  00DD               	movwf	??_measure+1
  7607     116A  01DC               	clrf	??_measure
  7608     116B  085C               	movf	??_measure,w
  7609     116C  00E2               	movwf	measure@adc_data_raw
  7610     116D  085D               	movf	??_measure+1,w
  7611     116E  00E3               	movwf	measure@adc_data_raw+1
  7612     116F                     l3169:
  7613                           
  7614                           ;measure.c: 35:         adc_data_raw |= ADRESL;
  7615     116F  1683               	bsf	3,5	;RP0=1, select bank1
  7616     1170  1303               	bcf	3,6	;RP1=0, select bank1
  7617     1171  081E               	movf	30,w	;volatile
  7618     1172  1283               	bcf	3,5	;RP0=0, select bank0
  7619     1173  1303               	bcf	3,6	;RP1=0, select bank0
  7620     1174  00DC               	movwf	??_measure
  7621     1175  01DD               	clrf	??_measure+1
  7622     1176  085C               	movf	??_measure,w
  7623     1177  04E2               	iorwf	measure@adc_data_raw,f
  7624     1178  085D               	movf	??_measure+1,w
  7625     1179  04E3               	iorwf	measure@adc_data_raw+1,f
  7626     117A                     l3171:
  7627                           
  7628                           ;measure.c: 38:     adc_data = (float)adc_data_raw * 5.0 / 1024;
  7629     117A  3044               	movlw	68
  7630     117B  00C1               	movwf	___fldiv@a+3
  7631     117C  3080               	movlw	128
  7632     117D  00C0               	movwf	___fldiv@a+2
  7633     117E  3000               	movlw	0
  7634     117F  00BF               	movwf	___fldiv@a+1
  7635     1180  3000               	movlw	0
  7636     1181  00BE               	movwf	___fldiv@a
  7637     1182  3040               	movlw	64
  7638     1183  00A7               	movwf	___flmul@b+3
  7639     1184  30A0               	movlw	160
  7640     1185  00A6               	movwf	___flmul@b+2
  7641     1186  3000               	movlw	0
  7642     1187  00A5               	movwf	___flmul@b+1
  7643     1188  3000               	movlw	0
  7644     1189  00A4               	movwf	___flmul@b
  7645     118A  0862               	movf	measure@adc_data_raw,w
  7646     118B  00F0               	movwf	___xxtofl@val
  7647     118C  0863               	movf	measure@adc_data_raw+1,w
  7648     118D  00F1               	movwf	___xxtofl@val+1
  7649     118E  3000               	movlw	0
  7650     118F  1BF1               	btfsc	___xxtofl@val+1,7
  7651     1190  30FF               	movlw	255
  7652     1191  00F2               	movwf	___xxtofl@val+2
  7653     1192  00F3               	movwf	___xxtofl@val+3
  7654     1193  3001               	movlw	1
  7655     1194  120A  118A  203E  160A  118A  	fcall	___xxtofl
  7656     1199  0873               	movf	?___xxtofl+3,w
  7657     119A  1283               	bcf	3,5	;RP0=0, select bank0
  7658     119B  1303               	bcf	3,6	;RP1=0, select bank0
  7659     119C  00AB               	movwf	___flmul@a+3
  7660     119D  0872               	movf	?___xxtofl+2,w
  7661     119E  00AA               	movwf	___flmul@a+2
  7662     119F  0871               	movf	?___xxtofl+1,w
  7663     11A0  00A9               	movwf	___flmul@a+1
  7664     11A1  0870               	movf	?___xxtofl,w
  7665     11A2  00A8               	movwf	___flmul@a
  7666     11A3  120A  158A  215C  160A  118A  	fcall	___flmul
  7667     11A8  1283               	bcf	3,5	;RP0=0, select bank0
  7668     11A9  1303               	bcf	3,6	;RP1=0, select bank0
  7669     11AA  0827               	movf	?___flmul+3,w
  7670     11AB  00C5               	movwf	___fldiv@b+3
  7671     11AC  0826               	movf	?___flmul+2,w
  7672     11AD  00C4               	movwf	___fldiv@b+2
  7673     11AE  0825               	movf	?___flmul+1,w
  7674     11AF  00C3               	movwf	___fldiv@b+1
  7675     11B0  0824               	movf	?___flmul,w
  7676     11B1  00C2               	movwf	___fldiv@b
  7677     11B2  160A  118A  21CA  160A  118A  	fcall	___fldiv
  7678     11B7  1283               	bcf	3,5	;RP0=0, select bank0
  7679     11B8  1303               	bcf	3,6	;RP1=0, select bank0
  7680     11B9  0841               	movf	?___fldiv+3,w
  7681     11BA  00E1               	movwf	measure@adc_data+3
  7682     11BB  0840               	movf	?___fldiv+2,w
  7683     11BC  00E0               	movwf	measure@adc_data+2
  7684     11BD  083F               	movf	?___fldiv+1,w
  7685     11BE  00DF               	movwf	measure@adc_data+1
  7686     11BF  083E               	movf	?___fldiv,w
  7687     11C0  00DE               	movwf	measure@adc_data
  7688     11C1                     l3173:
  7689                           
  7690                           ;measure.c: 39:     return adc_data;
  7691     11C1  0861               	movf	measure@adc_data+3,w
  7692     11C2  00DB               	movwf	?_measure+3
  7693     11C3  0860               	movf	measure@adc_data+2,w
  7694     11C4  00DA               	movwf	?_measure+2
  7695     11C5  085F               	movf	measure@adc_data+1,w
  7696     11C6  00D9               	movwf	?_measure+1
  7697     11C7  085E               	movf	measure@adc_data,w
  7698     11C8  00D8               	movwf	?_measure
  7699     11C9                     l95:
  7700     11C9  0008               	return
  7701     11CA                     __end_of_measure:
  7702                           
  7703                           	psect	text22
  7704     1D25                     __ptext22:	
  7705 ;; *************** function _delay *****************
  7706 ;; Defined at:
  7707 ;;		line 17 in file "measure.c"
  7708 ;; Parameters:    Size  Location     Type
  7709 ;;		None
  7710 ;; Auto vars:     Size  Location     Type
  7711 ;;  i               2    0[COMMON] int 
  7712 ;; Return value:  Size  Location     Type
  7713 ;;                  1    wreg      void 
  7714 ;; Registers used:
  7715 ;;		wreg, status,2, btemp+1
  7716 ;; Tracked objects:
  7717 ;;		On entry : 0/0
  7718 ;;		On exit  : 0/0
  7719 ;;		Unchanged: 0/0
  7720 ;; Data sizes:     COMMON   BANK0   BANK1   BANK3   BANK2
  7721 ;;      Params:         0       0       0       0       0
  7722 ;;      Locals:         2       0       0       0       0
  7723 ;;      Temps:          0       0       0       0       0
  7724 ;;      Totals:         2       0       0       0       0
  7725 ;;Total ram usage:        2 bytes
  7726 ;; Hardware stack levels used: 1
  7727 ;; This function calls:
  7728 ;;		Nothing
  7729 ;; This function is called by:
  7730 ;;		_measure
  7731 ;; This function uses a non-reentrant model
  7732 ;;
  7733                           
  7734     1D25                     _delay:	
  7735                           ;psect for function _delay
  7736                           
  7737     1D25                     l2615:	
  7738                           ;incstack = 0
  7739                           ; Regs used in _delay: [wreg+status,2+btemp+1]
  7740                           
  7741                           
  7742                           ;measure.c: 19:    int i;;measure.c: 20:    for(i=0;i<19;i++);
  7743     1D25  01F0               	clrf	delay@i
  7744     1D26  01F1               	clrf	delay@i+1
  7745     1D27                     l2621:
  7746     1D27  3001               	movlw	1
  7747     1D28  07F0               	addwf	delay@i,f
  7748     1D29  1803               	skipnc
  7749     1D2A  0AF1               	incf	delay@i+1,f
  7750     1D2B  3000               	movlw	0
  7751     1D2C  07F1               	addwf	delay@i+1,f
  7752     1D2D                     l2623:
  7753     1D2D  0871               	movf	delay@i+1,w
  7754     1D2E  3A80               	xorlw	128
  7755     1D2F  00FF               	movwf	btemp+1
  7756     1D30  3080               	movlw	128
  7757     1D31  027F               	subwf	btemp+1,w
  7758     1D32  1D03               	skipz
  7759     1D33  2D36               	goto	u4105
  7760     1D34  3013               	movlw	19
  7761     1D35  0270               	subwf	delay@i,w
  7762     1D36                     u4105:
  7763     1D36  1C03               	skipc
  7764     1D37  2D39               	goto	u4101
  7765     1D38  2D3A               	goto	u4100
  7766     1D39                     u4101:
  7767     1D39  2D27               	goto	l2621
  7768     1D3A                     u4100:
  7769     1D3A                     l89:
  7770     1D3A  0008               	return
  7771     1D3B                     __end_of_delay:
  7772                           
  7773                           	psect	text23
  7774     003E                     __ptext23:	
  7775 ;; *************** function ___xxtofl *****************
  7776 ;; Defined at:
  7777 ;;		line 10 in file "C:\Program Files\Microchip\xc8\v2.40\pic\sources\c90\common\xxtofl.c"
  7778 ;; Parameters:    Size  Location     Type
  7779 ;;  sign            1    wreg     unsigned char 
  7780 ;;  val             4    0[COMMON] long 
  7781 ;; Auto vars:     Size  Location     Type
  7782 ;;  sign            1    8[COMMON] unsigned char 
  7783 ;;  arg             4   10[COMMON] unsigned long 
  7784 ;;  exp             1    9[COMMON] unsigned char 
  7785 ;; Return value:  Size  Location     Type
  7786 ;;                  4    0[COMMON] unsigned char 
  7787 ;; Registers used:
  7788 ;;		wreg, status,2, status,0
  7789 ;; Tracked objects:
  7790 ;;		On entry : 0/0
  7791 ;;		On exit  : 0/0
  7792 ;;		Unchanged: 0/0
  7793 ;; Data sizes:     COMMON   BANK0   BANK1   BANK3   BANK2
  7794 ;;      Params:         4       0       0       0       0
  7795 ;;      Locals:         6       0       0       0       0
  7796 ;;      Temps:          4       0       0       0       0
  7797 ;;      Totals:        14       0       0       0       0
  7798 ;;Total ram usage:       14 bytes
  7799 ;; Hardware stack levels used: 1
  7800 ;; This function calls:
  7801 ;;		Nothing
  7802 ;; This function is called by:
  7803 ;;		_measure
  7804 ;;		_sprintf
  7805 ;; This function uses a non-reentrant model
  7806 ;;
  7807                           
  7808     003E                     ___xxtofl:	
  7809                           ;psect for function ___xxtofl
  7810                           
  7811                           
  7812                           ;incstack = 0
  7813                           ; Regs used in ___xxtofl: [wreg+status,2+status,0]
  7814                           ;___xxtofl@sign stored from wreg
  7815     003E  00F8               	movwf	___xxtofl@sign
  7816     003F                     l3081:
  7817     003F  0878               	movf	___xxtofl@sign,w
  7818     0040  1903               	btfsc	3,2
  7819     0041  2843               	goto	u5311
  7820     0042  2844               	goto	u5310
  7821     0043                     u5311:
  7822     0043  2858               	goto	l3087
  7823     0044                     u5310:
  7824     0044                     l3083:
  7825     0044  1FF3               	btfss	___xxtofl@val+3,7
  7826     0045  2847               	goto	u5321
  7827     0046  2848               	goto	u5320
  7828     0047                     u5321:
  7829     0047  2858               	goto	l3087
  7830     0048                     u5320:
  7831     0048                     l3085:
  7832     0048  0970               	comf	___xxtofl@val,w
  7833     0049  00FA               	movwf	___xxtofl@arg
  7834     004A  0971               	comf	___xxtofl@val+1,w
  7835     004B  00FB               	movwf	___xxtofl@arg+1
  7836     004C  0972               	comf	___xxtofl@val+2,w
  7837     004D  00FC               	movwf	___xxtofl@arg+2
  7838     004E  0973               	comf	___xxtofl@val+3,w
  7839     004F  00FD               	movwf	___xxtofl@arg+3
  7840     0050  0AFA               	incf	___xxtofl@arg,f
  7841     0051  1903               	skipnz
  7842     0052  0AFB               	incf	___xxtofl@arg+1,f
  7843     0053  1903               	skipnz
  7844     0054  0AFC               	incf	___xxtofl@arg+2,f
  7845     0055  1903               	skipnz
  7846     0056  0AFD               	incf	___xxtofl@arg+3,f
  7847     0057  2860               	goto	l741
  7848     0058                     l3087:
  7849     0058  0873               	movf	___xxtofl@val+3,w
  7850     0059  00FD               	movwf	___xxtofl@arg+3
  7851     005A  0872               	movf	___xxtofl@val+2,w
  7852     005B  00FC               	movwf	___xxtofl@arg+2
  7853     005C  0871               	movf	___xxtofl@val+1,w
  7854     005D  00FB               	movwf	___xxtofl@arg+1
  7855     005E  0870               	movf	___xxtofl@val,w
  7856     005F  00FA               	movwf	___xxtofl@arg
  7857     0060                     l741:
  7858     0060  0873               	movf	___xxtofl@val+3,w
  7859     0061  0472               	iorwf	___xxtofl@val+2,w
  7860     0062  0471               	iorwf	___xxtofl@val+1,w
  7861     0063  0470               	iorwf	___xxtofl@val,w
  7862     0064  1D03               	skipz
  7863     0065  2867               	goto	u5331
  7864     0066  2868               	goto	u5330
  7865     0067                     u5331:
  7866     0067  2871               	goto	l3093
  7867     0068                     u5330:
  7868     0068                     l3089:
  7869     0068  3000               	movlw	0
  7870     0069  00F3               	movwf	?___xxtofl+3
  7871     006A  3000               	movlw	0
  7872     006B  00F2               	movwf	?___xxtofl+2
  7873     006C  3000               	movlw	0
  7874     006D  00F1               	movwf	?___xxtofl+1
  7875     006E  3000               	movlw	0
  7876     006F  00F0               	movwf	?___xxtofl
  7877     0070  28F5               	goto	l743
  7878     0071                     l3093:
  7879     0071  3096               	movlw	150
  7880     0072  00F9               	movwf	___xxtofl@exp
  7881     0073  2881               	goto	l3097
  7882     0074                     l3095:
  7883     0074  3001               	movlw	1
  7884     0075  00F4               	movwf	??___xxtofl
  7885     0076  0874               	movf	??___xxtofl,w
  7886     0077  07F9               	addwf	___xxtofl@exp,f
  7887     0078  3001               	movlw	1
  7888     0079                     u5345:
  7889     0079  1003               	clrc
  7890     007A  0CFD               	rrf	___xxtofl@arg+3,f
  7891     007B  0CFC               	rrf	___xxtofl@arg+2,f
  7892     007C  0CFB               	rrf	___xxtofl@arg+1,f
  7893     007D  0CFA               	rrf	___xxtofl@arg,f
  7894     007E  3EFF               	addlw	-1
  7895     007F  1D03               	skipz
  7896     0080  2879               	goto	u5345
  7897     0081                     l3097:
  7898     0081  30FE               	movlw	254
  7899     0082  057D               	andwf	___xxtofl@arg+3,w
  7900     0083  1D03               	btfss	3,2
  7901     0084  2886               	goto	u5351
  7902     0085  2887               	goto	u5350
  7903     0086                     u5351:
  7904     0086  2874               	goto	l3095
  7905     0087                     u5350:
  7906     0087  28A3               	goto	l747
  7907     0088                     l3099:
  7908     0088  3001               	movlw	1
  7909     0089  00F4               	movwf	??___xxtofl
  7910     008A  0874               	movf	??___xxtofl,w
  7911     008B  07F9               	addwf	___xxtofl@exp,f
  7912     008C                     l3101:
  7913     008C  3001               	movlw	1
  7914     008D  07FA               	addwf	___xxtofl@arg,f
  7915     008E  3000               	movlw	0
  7916     008F  1803               	skipnc
  7917     0090  3001               	movlw	1
  7918     0091  07FB               	addwf	___xxtofl@arg+1,f
  7919     0092  3000               	movlw	0
  7920     0093  1803               	skipnc
  7921     0094  3001               	movlw	1
  7922     0095  07FC               	addwf	___xxtofl@arg+2,f
  7923     0096  3000               	movlw	0
  7924     0097  1803               	skipnc
  7925     0098  3001               	movlw	1
  7926     0099  07FD               	addwf	___xxtofl@arg+3,f
  7927     009A                     l3103:
  7928     009A  3001               	movlw	1
  7929     009B                     u5365:
  7930     009B  1003               	clrc
  7931     009C  0CFD               	rrf	___xxtofl@arg+3,f
  7932     009D  0CFC               	rrf	___xxtofl@arg+2,f
  7933     009E  0CFB               	rrf	___xxtofl@arg+1,f
  7934     009F  0CFA               	rrf	___xxtofl@arg,f
  7935     00A0  3EFF               	addlw	-1
  7936     00A1  1D03               	skipz
  7937     00A2  289B               	goto	u5365
  7938     00A3                     l747:
  7939     00A3  30FF               	movlw	255
  7940     00A4  057D               	andwf	___xxtofl@arg+3,w
  7941     00A5  1D03               	btfss	3,2
  7942     00A6  28A8               	goto	u5371
  7943     00A7  28A9               	goto	u5370
  7944     00A8                     u5371:
  7945     00A8  2888               	goto	l3099
  7946     00A9                     u5370:
  7947     00A9  28B5               	goto	l3107
  7948     00AA                     l3105:
  7949     00AA  3001               	movlw	1
  7950     00AB  02F9               	subwf	___xxtofl@exp,f
  7951     00AC  3001               	movlw	1
  7952     00AD  00F4               	movwf	??___xxtofl
  7953     00AE                     u5385:
  7954     00AE  1003               	clrc
  7955     00AF  0DFA               	rlf	___xxtofl@arg,f
  7956     00B0  0DFB               	rlf	___xxtofl@arg+1,f
  7957     00B1  0DFC               	rlf	___xxtofl@arg+2,f
  7958     00B2  0DFD               	rlf	___xxtofl@arg+3,f
  7959     00B3  0BF4               	decfsz	??___xxtofl,f
  7960     00B4  28AE               	goto	u5385
  7961     00B5                     l3107:
  7962     00B5  1BFC               	btfsc	___xxtofl@arg+2,7
  7963     00B6  28B8               	goto	u5391
  7964     00B7  28B9               	goto	u5390
  7965     00B8                     u5391:
  7966     00B8  28BF               	goto	l754
  7967     00B9                     u5390:
  7968     00B9                     l3109:
  7969     00B9  3002               	movlw	2
  7970     00BA  0279               	subwf	___xxtofl@exp,w
  7971     00BB  1803               	skipnc
  7972     00BC  28BE               	goto	u5401
  7973     00BD  28BF               	goto	u5400
  7974     00BE                     u5401:
  7975     00BE  28AA               	goto	l3105
  7976     00BF                     u5400:
  7977     00BF                     l754:
  7978     00BF  1879               	btfsc	___xxtofl@exp,0
  7979     00C0  28C2               	goto	u5411
  7980     00C1  28C3               	goto	u5410
  7981     00C2                     u5411:
  7982     00C2  28CB               	goto	l755
  7983     00C3                     u5410:
  7984     00C3                     l3111:
  7985     00C3  30FF               	movlw	255
  7986     00C4  05FA               	andwf	___xxtofl@arg,f
  7987     00C5  30FF               	movlw	255
  7988     00C6  05FB               	andwf	___xxtofl@arg+1,f
  7989     00C7  307F               	movlw	127
  7990     00C8  05FC               	andwf	___xxtofl@arg+2,f
  7991     00C9  30FF               	movlw	255
  7992     00CA  05FD               	andwf	___xxtofl@arg+3,f
  7993     00CB                     l755:
  7994     00CB  1003               	clrc
  7995     00CC  0CF9               	rrf	___xxtofl@exp,f
  7996     00CD                     l3113:
  7997     00CD  0879               	movf	___xxtofl@exp,w
  7998     00CE  00F4               	movwf	??___xxtofl
  7999     00CF  01F5               	clrf	??___xxtofl+1
  8000     00D0  01F6               	clrf	??___xxtofl+2
  8001     00D1  01F7               	clrf	??___xxtofl+3
  8002     00D2  3018               	movlw	24
  8003     00D3                     u5425:
  8004     00D3  1003               	clrc
  8005     00D4  0DF4               	rlf	??___xxtofl,f
  8006     00D5  0DF5               	rlf	??___xxtofl+1,f
  8007     00D6  0DF6               	rlf	??___xxtofl+2,f
  8008     00D7  0DF7               	rlf	??___xxtofl+3,f
  8009     00D8                     u5420:
  8010     00D8  3EFF               	addlw	-1
  8011     00D9  1D03               	skipz
  8012     00DA  28D3               	goto	u5425
  8013     00DB  0874               	movf	??___xxtofl,w
  8014     00DC  04FA               	iorwf	___xxtofl@arg,f
  8015     00DD  0875               	movf	??___xxtofl+1,w
  8016     00DE  04FB               	iorwf	___xxtofl@arg+1,f
  8017     00DF  0876               	movf	??___xxtofl+2,w
  8018     00E0  04FC               	iorwf	___xxtofl@arg+2,f
  8019     00E1  0877               	movf	??___xxtofl+3,w
  8020     00E2  04FD               	iorwf	___xxtofl@arg+3,f
  8021     00E3                     l3115:
  8022     00E3  0878               	movf	___xxtofl@sign,w
  8023     00E4  1903               	btfsc	3,2
  8024     00E5  28E7               	goto	u5431
  8025     00E6  28E8               	goto	u5430
  8026     00E7                     u5431:
  8027     00E7  28ED               	goto	l3121
  8028     00E8                     u5430:
  8029     00E8                     l3117:
  8030     00E8  1FF3               	btfss	___xxtofl@val+3,7
  8031     00E9  28EB               	goto	u5441
  8032     00EA  28EC               	goto	u5440
  8033     00EB                     u5441:
  8034     00EB  28ED               	goto	l3121
  8035     00EC                     u5440:
  8036     00EC                     l3119:
  8037     00EC  17FD               	bsf	___xxtofl@arg+3,7
  8038     00ED                     l3121:
  8039     00ED  087D               	movf	___xxtofl@arg+3,w
  8040     00EE  00F3               	movwf	?___xxtofl+3
  8041     00EF  087C               	movf	___xxtofl@arg+2,w
  8042     00F0  00F2               	movwf	?___xxtofl+2
  8043     00F1  087B               	movf	___xxtofl@arg+1,w
  8044     00F2  00F1               	movwf	?___xxtofl+1
  8045     00F3  087A               	movf	___xxtofl@arg,w
  8046     00F4  00F0               	movwf	?___xxtofl
  8047     00F5                     l743:
  8048     00F5  0008               	return
  8049     00F6                     __end_of___xxtofl:
  8050                           
  8051                           	psect	text24
  8052     095C                     __ptext24:	
  8053 ;; *************** function ___flmul *****************
  8054 ;; Defined at:
  8055 ;;		line 8 in file "C:\Program Files\Microchip\xc8\v2.40\pic\sources\c90\common\sprcmul.c"
  8056 ;; Parameters:    Size  Location     Type
  8057 ;;  b               4    4[BANK0 ] unsigned char 
  8058 ;;  a               4    8[BANK0 ] unsigned char 
  8059 ;; Auto vars:     Size  Location     Type
  8060 ;;  prod            4   24[BANK0 ] struct .
  8061 ;;  grs             4   18[BANK0 ] unsigned long 
  8062 ;;  temp            2   28[BANK0 ] struct .
  8063 ;;  bexp            1   23[BANK0 ] unsigned char 
  8064 ;;  aexp            1   22[BANK0 ] unsigned char 
  8065 ;;  sign            1   17[BANK0 ] unsigned char 
  8066 ;; Return value:  Size  Location     Type
  8067 ;;                  4    4[BANK0 ] unsigned char 
  8068 ;; Registers used:
  8069 ;;		wreg, status,2, status,0, btemp+1, pclath, cstack
  8070 ;; Tracked objects:
  8071 ;;		On entry : 0/0
  8072 ;;		On exit  : 0/0
  8073 ;;		Unchanged: 0/0
  8074 ;; Data sizes:     COMMON   BANK0   BANK1   BANK3   BANK2
  8075 ;;      Params:         0       8       0       0       0
  8076 ;;      Locals:         0      13       0       0       0
  8077 ;;      Temps:          0       5       0       0       0
  8078 ;;      Totals:         0      26       0       0       0
  8079 ;;Total ram usage:       26 bytes
  8080 ;; Hardware stack levels used: 1
  8081 ;; Hardware stack levels required when called: 1
  8082 ;; This function calls:
  8083 ;;		__Umul8_16
  8084 ;; This function is called by:
  8085 ;;		_measure
  8086 ;;		_fround
  8087 ;;		_scale
  8088 ;;		_sprintf
  8089 ;; This function uses a non-reentrant model
  8090 ;;
  8091                           
  8092     095C                     ___flmul:	
  8093                           ;psect for function ___flmul
  8094                           
  8095     095C                     l2475:	
  8096                           ;incstack = 0
  8097                           ; Regs used in ___flmul: [wreg+status,2+status,0+btemp+1+pclath+cstack]
  8098                           
  8099     095C  1283               	bcf	3,5	;RP0=0, select bank0
  8100     095D  1303               	bcf	3,6	;RP1=0, select bank0
  8101     095E  0827               	movf	___flmul@b+3,w
  8102     095F  3980               	andlw	128
  8103     0960  00B1               	movwf	___flmul@sign
  8104     0961                     l2477:
  8105     0961  0827               	movf	___flmul@b+3,w
  8106     0962  00AC               	movwf	??___flmul
  8107     0963  072C               	addwf	??___flmul,w
  8108     0964  00B7               	movwf	___flmul@bexp
  8109     0965                     l2479:
  8110     0965  1FA6               	btfss	___flmul@b+2,7
  8111     0966  2968               	goto	u3731
  8112     0967  2969               	goto	u3730
  8113     0968                     u3731:
  8114     0968  296A               	goto	l2483
  8115     0969                     u3730:
  8116     0969                     l2481:
  8117     0969  1437               	bsf	___flmul@bexp,0
  8118     096A                     l2483:
  8119     096A  0837               	movf	___flmul@bexp,w
  8120     096B  1903               	btfsc	3,2
  8121     096C  296E               	goto	u3741
  8122     096D  296F               	goto	u3740
  8123     096E                     u3741:
  8124     096E  297E               	goto	l2491
  8125     096F                     u3740:
  8126     096F                     l2485:
  8127     096F  0A37               	incf	___flmul@bexp,w
  8128     0970  1D03               	btfss	3,2
  8129     0971  2973               	goto	u3751
  8130     0972  2974               	goto	u3750
  8131     0973                     u3751:
  8132     0973  297C               	goto	l2489
  8133     0974                     u3750:
  8134     0974                     l2487:
  8135     0974  3000               	movlw	0
  8136     0975  00A7               	movwf	___flmul@b+3
  8137     0976  3000               	movlw	0
  8138     0977  00A6               	movwf	___flmul@b+2
  8139     0978  3000               	movlw	0
  8140     0979  00A5               	movwf	___flmul@b+1
  8141     097A  3000               	movlw	0
  8142     097B  00A4               	movwf	___flmul@b
  8143     097C                     l2489:
  8144     097C  17A6               	bsf	___flmul@b+2,7
  8145     097D  2986               	goto	l2493
  8146     097E                     l2491:
  8147     097E  3000               	movlw	0
  8148     097F  00A7               	movwf	___flmul@b+3
  8149     0980  3000               	movlw	0
  8150     0981  00A6               	movwf	___flmul@b+2
  8151     0982  3000               	movlw	0
  8152     0983  00A5               	movwf	___flmul@b+1
  8153     0984  3000               	movlw	0
  8154     0985  00A4               	movwf	___flmul@b
  8155     0986                     l2493:
  8156     0986  082B               	movf	___flmul@a+3,w
  8157     0987  3980               	andlw	128
  8158     0988  00AC               	movwf	??___flmul
  8159     0989  082C               	movf	??___flmul,w
  8160     098A  06B1               	xorwf	___flmul@sign,f
  8161     098B                     l2495:
  8162     098B  082B               	movf	___flmul@a+3,w
  8163     098C  00AC               	movwf	??___flmul
  8164     098D  072C               	addwf	??___flmul,w
  8165     098E  00B6               	movwf	___flmul@aexp
  8166     098F                     l2497:
  8167     098F  1FAA               	btfss	___flmul@a+2,7
  8168     0990  2992               	goto	u3761
  8169     0991  2993               	goto	u3760
  8170     0992                     u3761:
  8171     0992  2994               	goto	l2501
  8172     0993                     u3760:
  8173     0993                     l2499:
  8174     0993  1436               	bsf	___flmul@aexp,0
  8175     0994                     l2501:
  8176     0994  0836               	movf	___flmul@aexp,w
  8177     0995  1903               	btfsc	3,2
  8178     0996  2998               	goto	u3771
  8179     0997  2999               	goto	u3770
  8180     0998                     u3771:
  8181     0998  29A8               	goto	l2509
  8182     0999                     u3770:
  8183     0999                     l2503:
  8184     0999  0A36               	incf	___flmul@aexp,w
  8185     099A  1D03               	btfss	3,2
  8186     099B  299D               	goto	u3781
  8187     099C  299E               	goto	u3780
  8188     099D                     u3781:
  8189     099D  29A6               	goto	l2507
  8190     099E                     u3780:
  8191     099E                     l2505:
  8192     099E  3000               	movlw	0
  8193     099F  00AB               	movwf	___flmul@a+3
  8194     09A0  3000               	movlw	0
  8195     09A1  00AA               	movwf	___flmul@a+2
  8196     09A2  3000               	movlw	0
  8197     09A3  00A9               	movwf	___flmul@a+1
  8198     09A4  3000               	movlw	0
  8199     09A5  00A8               	movwf	___flmul@a
  8200     09A6                     l2507:
  8201     09A6  17AA               	bsf	___flmul@a+2,7
  8202     09A7  29B0               	goto	l2511
  8203     09A8                     l2509:
  8204     09A8  3000               	movlw	0
  8205     09A9  00AB               	movwf	___flmul@a+3
  8206     09AA  3000               	movlw	0
  8207     09AB  00AA               	movwf	___flmul@a+2
  8208     09AC  3000               	movlw	0
  8209     09AD  00A9               	movwf	___flmul@a+1
  8210     09AE  3000               	movlw	0
  8211     09AF  00A8               	movwf	___flmul@a
  8212     09B0                     l2511:
  8213     09B0  0836               	movf	___flmul@aexp,w
  8214     09B1  1903               	btfsc	3,2
  8215     09B2  29B4               	goto	u3791
  8216     09B3  29B5               	goto	u3790
  8217     09B4                     u3791:
  8218     09B4  29BA               	goto	l2515
  8219     09B5                     u3790:
  8220     09B5                     l2513:
  8221     09B5  0837               	movf	___flmul@bexp,w
  8222     09B6  1D03               	btfss	3,2
  8223     09B7  29B9               	goto	u3801
  8224     09B8  29BA               	goto	u3800
  8225     09B9                     u3801:
  8226     09B9  29C3               	goto	l2519
  8227     09BA                     u3800:
  8228     09BA                     l2515:
  8229     09BA  3000               	movlw	0
  8230     09BB  00A7               	movwf	?___flmul+3
  8231     09BC  3000               	movlw	0
  8232     09BD  00A6               	movwf	?___flmul+2
  8233     09BE  3000               	movlw	0
  8234     09BF  00A5               	movwf	?___flmul+1
  8235     09C0  3000               	movlw	0
  8236     09C1  00A4               	movwf	?___flmul
  8237     09C2  2CA0               	goto	l697
  8238     09C3                     l2519:
  8239     09C3  0824               	movf	___flmul@b,w
  8240     09C4  00F0               	movwf	__Umul8_16@multiplicand
  8241     09C5  082A               	movf	___flmul@a+2,w
  8242     09C6  160A  118A  20AE  120A  158A  	fcall	__Umul8_16
  8243     09CB  0871               	movf	?__Umul8_16+1,w
  8244     09CC  1283               	bcf	3,5	;RP0=0, select bank0
  8245     09CD  1303               	bcf	3,6	;RP1=0, select bank0
  8246     09CE  00BD               	movwf	___flmul@temp+1
  8247     09CF  0870               	movf	?__Umul8_16,w
  8248     09D0  00BC               	movwf	___flmul@temp
  8249     09D1                     l2521:
  8250     09D1  083C               	movf	___flmul@temp,w
  8251     09D2  00AC               	movwf	??___flmul
  8252     09D3  01AD               	clrf	??___flmul+1
  8253     09D4  01AE               	clrf	??___flmul+2
  8254     09D5  01AF               	clrf	??___flmul+3
  8255     09D6  082F               	movf	??___flmul+3,w
  8256     09D7  00B5               	movwf	___flmul@grs+3
  8257     09D8  082E               	movf	??___flmul+2,w
  8258     09D9  00B4               	movwf	___flmul@grs+2
  8259     09DA  082D               	movf	??___flmul+1,w
  8260     09DB  00B3               	movwf	___flmul@grs+1
  8261     09DC  082C               	movf	??___flmul,w
  8262     09DD  00B2               	movwf	___flmul@grs
  8263     09DE                     l2523:
  8264     09DE  083D               	movf	___flmul@temp+1,w
  8265     09DF  00AC               	movwf	??___flmul
  8266     09E0  01AD               	clrf	??___flmul+1
  8267     09E1  01AE               	clrf	??___flmul+2
  8268     09E2  01AF               	clrf	??___flmul+3
  8269     09E3  082F               	movf	??___flmul+3,w
  8270     09E4  00BB               	movwf	___flmul@prod+3
  8271     09E5  082E               	movf	??___flmul+2,w
  8272     09E6  00BA               	movwf	___flmul@prod+2
  8273     09E7  082D               	movf	??___flmul+1,w
  8274     09E8  00B9               	movwf	___flmul@prod+1
  8275     09E9  082C               	movf	??___flmul,w
  8276     09EA  00B8               	movwf	___flmul@prod
  8277     09EB  0825               	movf	___flmul@b+1,w
  8278     09EC  00F0               	movwf	__Umul8_16@multiplicand
  8279     09ED  0829               	movf	___flmul@a+1,w
  8280     09EE  160A  118A  20AE  120A  158A  	fcall	__Umul8_16
  8281     09F3  0871               	movf	?__Umul8_16+1,w
  8282     09F4  1283               	bcf	3,5	;RP0=0, select bank0
  8283     09F5  1303               	bcf	3,6	;RP1=0, select bank0
  8284     09F6  00BD               	movwf	___flmul@temp+1
  8285     09F7  0870               	movf	?__Umul8_16,w
  8286     09F8  00BC               	movwf	___flmul@temp
  8287     09F9                     l2525:
  8288     09F9  083C               	movf	___flmul@temp,w
  8289     09FA  00AC               	movwf	??___flmul
  8290     09FB  01AD               	clrf	??___flmul+1
  8291     09FC  01AE               	clrf	??___flmul+2
  8292     09FD  01AF               	clrf	??___flmul+3
  8293     09FE  082C               	movf	??___flmul,w
  8294     09FF  07B2               	addwf	___flmul@grs,f
  8295     0A00  082D               	movf	??___flmul+1,w
  8296     0A01  1103               	clrz
  8297     0A02  1803               	skipnc
  8298     0A03  3E01               	addlw	1
  8299     0A04  1903               	skipnz
  8300     0A05  2A07               	goto	u3811
  8301     0A06  07B3               	addwf	___flmul@grs+1,f
  8302     0A07                     u3811:
  8303     0A07  082E               	movf	??___flmul+2,w
  8304     0A08  1103               	clrz
  8305     0A09  1803               	skipnc
  8306     0A0A  3E01               	addlw	1
  8307     0A0B  1903               	skipnz
  8308     0A0C  2A0E               	goto	u3812
  8309     0A0D  07B4               	addwf	___flmul@grs+2,f
  8310     0A0E                     u3812:
  8311     0A0E  082F               	movf	??___flmul+3,w
  8312     0A0F  1103               	clrz
  8313     0A10  1803               	skipnc
  8314     0A11  3E01               	addlw	1
  8315     0A12  1903               	skipnz
  8316     0A13  2A15               	goto	u3813
  8317     0A14  07B5               	addwf	___flmul@grs+3,f
  8318     0A15                     u3813:
  8319     0A15                     l2527:
  8320     0A15  083D               	movf	___flmul@temp+1,w
  8321     0A16  00AC               	movwf	??___flmul
  8322     0A17  01AD               	clrf	??___flmul+1
  8323     0A18  01AE               	clrf	??___flmul+2
  8324     0A19  01AF               	clrf	??___flmul+3
  8325     0A1A  082C               	movf	??___flmul,w
  8326     0A1B  07B8               	addwf	___flmul@prod,f
  8327     0A1C  082D               	movf	??___flmul+1,w
  8328     0A1D  1103               	clrz
  8329     0A1E  1803               	skipnc
  8330     0A1F  3E01               	addlw	1
  8331     0A20  1903               	skipnz
  8332     0A21  2A23               	goto	u3821
  8333     0A22  07B9               	addwf	___flmul@prod+1,f
  8334     0A23                     u3821:
  8335     0A23  082E               	movf	??___flmul+2,w
  8336     0A24  1103               	clrz
  8337     0A25  1803               	skipnc
  8338     0A26  3E01               	addlw	1
  8339     0A27  1903               	skipnz
  8340     0A28  2A2A               	goto	u3822
  8341     0A29  07BA               	addwf	___flmul@prod+2,f
  8342     0A2A                     u3822:
  8343     0A2A  082F               	movf	??___flmul+3,w
  8344     0A2B  1103               	clrz
  8345     0A2C  1803               	skipnc
  8346     0A2D  3E01               	addlw	1
  8347     0A2E  1903               	skipnz
  8348     0A2F  2A31               	goto	u3823
  8349     0A30  07BB               	addwf	___flmul@prod+3,f
  8350     0A31                     u3823:
  8351     0A31  0826               	movf	___flmul@b+2,w
  8352     0A32  00F0               	movwf	__Umul8_16@multiplicand
  8353     0A33  0828               	movf	___flmul@a,w
  8354     0A34  160A  118A  20AE  120A  158A  	fcall	__Umul8_16
  8355     0A39  0871               	movf	?__Umul8_16+1,w
  8356     0A3A  1283               	bcf	3,5	;RP0=0, select bank0
  8357     0A3B  1303               	bcf	3,6	;RP1=0, select bank0
  8358     0A3C  00BD               	movwf	___flmul@temp+1
  8359     0A3D  0870               	movf	?__Umul8_16,w
  8360     0A3E  00BC               	movwf	___flmul@temp
  8361     0A3F                     l2529:
  8362     0A3F  083C               	movf	___flmul@temp,w
  8363     0A40  00AC               	movwf	??___flmul
  8364     0A41  01AD               	clrf	??___flmul+1
  8365     0A42  01AE               	clrf	??___flmul+2
  8366     0A43  01AF               	clrf	??___flmul+3
  8367     0A44  082C               	movf	??___flmul,w
  8368     0A45  07B2               	addwf	___flmul@grs,f
  8369     0A46  082D               	movf	??___flmul+1,w
  8370     0A47  1103               	clrz
  8371     0A48  1803               	skipnc
  8372     0A49  3E01               	addlw	1
  8373     0A4A  1903               	skipnz
  8374     0A4B  2A4D               	goto	u3831
  8375     0A4C  07B3               	addwf	___flmul@grs+1,f
  8376     0A4D                     u3831:
  8377     0A4D  082E               	movf	??___flmul+2,w
  8378     0A4E  1103               	clrz
  8379     0A4F  1803               	skipnc
  8380     0A50  3E01               	addlw	1
  8381     0A51  1903               	skipnz
  8382     0A52  2A54               	goto	u3832
  8383     0A53  07B4               	addwf	___flmul@grs+2,f
  8384     0A54                     u3832:
  8385     0A54  082F               	movf	??___flmul+3,w
  8386     0A55  1103               	clrz
  8387     0A56  1803               	skipnc
  8388     0A57  3E01               	addlw	1
  8389     0A58  1903               	skipnz
  8390     0A59  2A5B               	goto	u3833
  8391     0A5A  07B5               	addwf	___flmul@grs+3,f
  8392     0A5B                     u3833:
  8393     0A5B                     l2531:
  8394     0A5B  083D               	movf	___flmul@temp+1,w
  8395     0A5C  00AC               	movwf	??___flmul
  8396     0A5D  01AD               	clrf	??___flmul+1
  8397     0A5E  01AE               	clrf	??___flmul+2
  8398     0A5F  01AF               	clrf	??___flmul+3
  8399     0A60  082C               	movf	??___flmul,w
  8400     0A61  07B8               	addwf	___flmul@prod,f
  8401     0A62  082D               	movf	??___flmul+1,w
  8402     0A63  1103               	clrz
  8403     0A64  1803               	skipnc
  8404     0A65  3E01               	addlw	1
  8405     0A66  1903               	skipnz
  8406     0A67  2A69               	goto	u3841
  8407     0A68  07B9               	addwf	___flmul@prod+1,f
  8408     0A69                     u3841:
  8409     0A69  082E               	movf	??___flmul+2,w
  8410     0A6A  1103               	clrz
  8411     0A6B  1803               	skipnc
  8412     0A6C  3E01               	addlw	1
  8413     0A6D  1903               	skipnz
  8414     0A6E  2A70               	goto	u3842
  8415     0A6F  07BA               	addwf	___flmul@prod+2,f
  8416     0A70                     u3842:
  8417     0A70  082F               	movf	??___flmul+3,w
  8418     0A71  1103               	clrz
  8419     0A72  1803               	skipnc
  8420     0A73  3E01               	addlw	1
  8421     0A74  1903               	skipnz
  8422     0A75  2A77               	goto	u3843
  8423     0A76  07BB               	addwf	___flmul@prod+3,f
  8424     0A77                     u3843:
  8425     0A77                     l2533:
  8426     0A77  3008               	movlw	8
  8427     0A78  00AC               	movwf	??___flmul
  8428     0A79                     u3855:
  8429     0A79  1003               	clrc
  8430     0A7A  0DB2               	rlf	___flmul@grs,f
  8431     0A7B  0DB3               	rlf	___flmul@grs+1,f
  8432     0A7C  0DB4               	rlf	___flmul@grs+2,f
  8433     0A7D  0DB5               	rlf	___flmul@grs+3,f
  8434     0A7E  0BAC               	decfsz	??___flmul,f
  8435     0A7F  2A79               	goto	u3855
  8436     0A80                     l2535:
  8437     0A80  0825               	movf	___flmul@b+1,w
  8438     0A81  00F0               	movwf	__Umul8_16@multiplicand
  8439     0A82  0828               	movf	___flmul@a,w
  8440     0A83  160A  118A  20AE  120A  158A  	fcall	__Umul8_16
  8441     0A88  0871               	movf	?__Umul8_16+1,w
  8442     0A89  1283               	bcf	3,5	;RP0=0, select bank0
  8443     0A8A  1303               	bcf	3,6	;RP1=0, select bank0
  8444     0A8B  00BD               	movwf	___flmul@temp+1
  8445     0A8C  0870               	movf	?__Umul8_16,w
  8446     0A8D  00BC               	movwf	___flmul@temp
  8447     0A8E                     l2537:
  8448     0A8E  083C               	movf	___flmul@temp,w
  8449     0A8F  00AC               	movwf	??___flmul
  8450     0A90  083D               	movf	___flmul@temp+1,w
  8451     0A91  00AD               	movwf	??___flmul+1
  8452     0A92  01AE               	clrf	??___flmul+2
  8453     0A93  01AF               	clrf	??___flmul+3
  8454     0A94  082C               	movf	??___flmul,w
  8455     0A95  07B2               	addwf	___flmul@grs,f
  8456     0A96  082D               	movf	??___flmul+1,w
  8457     0A97  1103               	clrz
  8458     0A98  1803               	skipnc
  8459     0A99  3E01               	addlw	1
  8460     0A9A  1903               	skipnz
  8461     0A9B  2A9D               	goto	u3861
  8462     0A9C  07B3               	addwf	___flmul@grs+1,f
  8463     0A9D                     u3861:
  8464     0A9D  082E               	movf	??___flmul+2,w
  8465     0A9E  1103               	clrz
  8466     0A9F  1803               	skipnc
  8467     0AA0  3E01               	addlw	1
  8468     0AA1  1903               	skipnz
  8469     0AA2  2AA4               	goto	u3862
  8470     0AA3  07B4               	addwf	___flmul@grs+2,f
  8471     0AA4                     u3862:
  8472     0AA4  082F               	movf	??___flmul+3,w
  8473     0AA5  1103               	clrz
  8474     0AA6  1803               	skipnc
  8475     0AA7  3E01               	addlw	1
  8476     0AA8  1903               	skipnz
  8477     0AA9  2AAB               	goto	u3863
  8478     0AAA  07B5               	addwf	___flmul@grs+3,f
  8479     0AAB                     u3863:
  8480     0AAB                     l2539:
  8481     0AAB  0824               	movf	___flmul@b,w
  8482     0AAC  00F0               	movwf	__Umul8_16@multiplicand
  8483     0AAD  0829               	movf	___flmul@a+1,w
  8484     0AAE  160A  118A  20AE  120A  158A  	fcall	__Umul8_16
  8485     0AB3  0871               	movf	?__Umul8_16+1,w
  8486     0AB4  1283               	bcf	3,5	;RP0=0, select bank0
  8487     0AB5  1303               	bcf	3,6	;RP1=0, select bank0
  8488     0AB6  00BD               	movwf	___flmul@temp+1
  8489     0AB7  0870               	movf	?__Umul8_16,w
  8490     0AB8  00BC               	movwf	___flmul@temp
  8491     0AB9                     l2541:
  8492     0AB9  083C               	movf	___flmul@temp,w
  8493     0ABA  00AC               	movwf	??___flmul
  8494     0ABB  083D               	movf	___flmul@temp+1,w
  8495     0ABC  00AD               	movwf	??___flmul+1
  8496     0ABD  01AE               	clrf	??___flmul+2
  8497     0ABE  01AF               	clrf	??___flmul+3
  8498     0ABF  082C               	movf	??___flmul,w
  8499     0AC0  07B2               	addwf	___flmul@grs,f
  8500     0AC1  082D               	movf	??___flmul+1,w
  8501     0AC2  1103               	clrz
  8502     0AC3  1803               	skipnc
  8503     0AC4  3E01               	addlw	1
  8504     0AC5  1903               	skipnz
  8505     0AC6  2AC8               	goto	u3871
  8506     0AC7  07B3               	addwf	___flmul@grs+1,f
  8507     0AC8                     u3871:
  8508     0AC8  082E               	movf	??___flmul+2,w
  8509     0AC9  1103               	clrz
  8510     0ACA  1803               	skipnc
  8511     0ACB  3E01               	addlw	1
  8512     0ACC  1903               	skipnz
  8513     0ACD  2ACF               	goto	u3872
  8514     0ACE  07B4               	addwf	___flmul@grs+2,f
  8515     0ACF                     u3872:
  8516     0ACF  082F               	movf	??___flmul+3,w
  8517     0AD0  1103               	clrz
  8518     0AD1  1803               	skipnc
  8519     0AD2  3E01               	addlw	1
  8520     0AD3  1903               	skipnz
  8521     0AD4  2AD6               	goto	u3873
  8522     0AD5  07B5               	addwf	___flmul@grs+3,f
  8523     0AD6                     u3873:
  8524     0AD6                     l2543:
  8525     0AD6  3008               	movlw	8
  8526     0AD7  00AC               	movwf	??___flmul
  8527     0AD8                     u3885:
  8528     0AD8  1003               	clrc
  8529     0AD9  0DB2               	rlf	___flmul@grs,f
  8530     0ADA  0DB3               	rlf	___flmul@grs+1,f
  8531     0ADB  0DB4               	rlf	___flmul@grs+2,f
  8532     0ADC  0DB5               	rlf	___flmul@grs+3,f
  8533     0ADD  0BAC               	decfsz	??___flmul,f
  8534     0ADE  2AD8               	goto	u3885
  8535     0ADF  0824               	movf	___flmul@b,w
  8536     0AE0  00F0               	movwf	__Umul8_16@multiplicand
  8537     0AE1  0828               	movf	___flmul@a,w
  8538     0AE2  160A  118A  20AE  120A  158A  	fcall	__Umul8_16
  8539     0AE7  0871               	movf	?__Umul8_16+1,w
  8540     0AE8  1283               	bcf	3,5	;RP0=0, select bank0
  8541     0AE9  1303               	bcf	3,6	;RP1=0, select bank0
  8542     0AEA  00BD               	movwf	___flmul@temp+1
  8543     0AEB  0870               	movf	?__Umul8_16,w
  8544     0AEC  00BC               	movwf	___flmul@temp
  8545     0AED                     l2545:
  8546     0AED  083C               	movf	___flmul@temp,w
  8547     0AEE  00AC               	movwf	??___flmul
  8548     0AEF  083D               	movf	___flmul@temp+1,w
  8549     0AF0  00AD               	movwf	??___flmul+1
  8550     0AF1  01AE               	clrf	??___flmul+2
  8551     0AF2  01AF               	clrf	??___flmul+3
  8552     0AF3  082C               	movf	??___flmul,w
  8553     0AF4  07B2               	addwf	___flmul@grs,f
  8554     0AF5  082D               	movf	??___flmul+1,w
  8555     0AF6  1103               	clrz
  8556     0AF7  1803               	skipnc
  8557     0AF8  3E01               	addlw	1
  8558     0AF9  1903               	skipnz
  8559     0AFA  2AFC               	goto	u3891
  8560     0AFB  07B3               	addwf	___flmul@grs+1,f
  8561     0AFC                     u3891:
  8562     0AFC  082E               	movf	??___flmul+2,w
  8563     0AFD  1103               	clrz
  8564     0AFE  1803               	skipnc
  8565     0AFF  3E01               	addlw	1
  8566     0B00  1903               	skipnz
  8567     0B01  2B03               	goto	u3892
  8568     0B02  07B4               	addwf	___flmul@grs+2,f
  8569     0B03                     u3892:
  8570     0B03  082F               	movf	??___flmul+3,w
  8571     0B04  1103               	clrz
  8572     0B05  1803               	skipnc
  8573     0B06  3E01               	addlw	1
  8574     0B07  1903               	skipnz
  8575     0B08  2B0A               	goto	u3893
  8576     0B09  07B5               	addwf	___flmul@grs+3,f
  8577     0B0A                     u3893:
  8578     0B0A                     l2547:
  8579     0B0A  0825               	movf	___flmul@b+1,w
  8580     0B0B  00F0               	movwf	__Umul8_16@multiplicand
  8581     0B0C  082A               	movf	___flmul@a+2,w
  8582     0B0D  160A  118A  20AE  120A  158A  	fcall	__Umul8_16
  8583     0B12  0871               	movf	?__Umul8_16+1,w
  8584     0B13  1283               	bcf	3,5	;RP0=0, select bank0
  8585     0B14  1303               	bcf	3,6	;RP1=0, select bank0
  8586     0B15  00BD               	movwf	___flmul@temp+1
  8587     0B16  0870               	movf	?__Umul8_16,w
  8588     0B17  00BC               	movwf	___flmul@temp
  8589     0B18  083C               	movf	___flmul@temp,w
  8590     0B19  00AC               	movwf	??___flmul
  8591     0B1A  083D               	movf	___flmul@temp+1,w
  8592     0B1B  00AD               	movwf	??___flmul+1
  8593     0B1C  01AE               	clrf	??___flmul+2
  8594     0B1D  01AF               	clrf	??___flmul+3
  8595     0B1E  082C               	movf	??___flmul,w
  8596     0B1F  07B8               	addwf	___flmul@prod,f
  8597     0B20  082D               	movf	??___flmul+1,w
  8598     0B21  1103               	clrz
  8599     0B22  1803               	skipnc
  8600     0B23  3E01               	addlw	1
  8601     0B24  1903               	skipnz
  8602     0B25  2B27               	goto	u3901
  8603     0B26  07B9               	addwf	___flmul@prod+1,f
  8604     0B27                     u3901:
  8605     0B27  082E               	movf	??___flmul+2,w
  8606     0B28  1103               	clrz
  8607     0B29  1803               	skipnc
  8608     0B2A  3E01               	addlw	1
  8609     0B2B  1903               	skipnz
  8610     0B2C  2B2E               	goto	u3902
  8611     0B2D  07BA               	addwf	___flmul@prod+2,f
  8612     0B2E                     u3902:
  8613     0B2E  082F               	movf	??___flmul+3,w
  8614     0B2F  1103               	clrz
  8615     0B30  1803               	skipnc
  8616     0B31  3E01               	addlw	1
  8617     0B32  1903               	skipnz
  8618     0B33  2B35               	goto	u3903
  8619     0B34  07BB               	addwf	___flmul@prod+3,f
  8620     0B35                     u3903:
  8621     0B35                     l2549:
  8622     0B35  0826               	movf	___flmul@b+2,w
  8623     0B36  00F0               	movwf	__Umul8_16@multiplicand
  8624     0B37  0829               	movf	___flmul@a+1,w
  8625     0B38  160A  118A  20AE  120A  158A  	fcall	__Umul8_16
  8626     0B3D  0871               	movf	?__Umul8_16+1,w
  8627     0B3E  1283               	bcf	3,5	;RP0=0, select bank0
  8628     0B3F  1303               	bcf	3,6	;RP1=0, select bank0
  8629     0B40  00BD               	movwf	___flmul@temp+1
  8630     0B41  0870               	movf	?__Umul8_16,w
  8631     0B42  00BC               	movwf	___flmul@temp
  8632     0B43                     l2551:
  8633     0B43  083C               	movf	___flmul@temp,w
  8634     0B44  00AC               	movwf	??___flmul
  8635     0B45  083D               	movf	___flmul@temp+1,w
  8636     0B46  00AD               	movwf	??___flmul+1
  8637     0B47  01AE               	clrf	??___flmul+2
  8638     0B48  01AF               	clrf	??___flmul+3
  8639     0B49  082C               	movf	??___flmul,w
  8640     0B4A  07B8               	addwf	___flmul@prod,f
  8641     0B4B  082D               	movf	??___flmul+1,w
  8642     0B4C  1103               	clrz
  8643     0B4D  1803               	skipnc
  8644     0B4E  3E01               	addlw	1
  8645     0B4F  1903               	skipnz
  8646     0B50  2B52               	goto	u3911
  8647     0B51  07B9               	addwf	___flmul@prod+1,f
  8648     0B52                     u3911:
  8649     0B52  082E               	movf	??___flmul+2,w
  8650     0B53  1103               	clrz
  8651     0B54  1803               	skipnc
  8652     0B55  3E01               	addlw	1
  8653     0B56  1903               	skipnz
  8654     0B57  2B59               	goto	u3912
  8655     0B58  07BA               	addwf	___flmul@prod+2,f
  8656     0B59                     u3912:
  8657     0B59  082F               	movf	??___flmul+3,w
  8658     0B5A  1103               	clrz
  8659     0B5B  1803               	skipnc
  8660     0B5C  3E01               	addlw	1
  8661     0B5D  1903               	skipnz
  8662     0B5E  2B60               	goto	u3913
  8663     0B5F  07BB               	addwf	___flmul@prod+3,f
  8664     0B60                     u3913:
  8665     0B60  0826               	movf	___flmul@b+2,w
  8666     0B61  00F0               	movwf	__Umul8_16@multiplicand
  8667     0B62  082A               	movf	___flmul@a+2,w
  8668     0B63  160A  118A  20AE  120A  158A  	fcall	__Umul8_16
  8669     0B68  0871               	movf	?__Umul8_16+1,w
  8670     0B69  1283               	bcf	3,5	;RP0=0, select bank0
  8671     0B6A  1303               	bcf	3,6	;RP1=0, select bank0
  8672     0B6B  00BD               	movwf	___flmul@temp+1
  8673     0B6C  0870               	movf	?__Umul8_16,w
  8674     0B6D  00BC               	movwf	___flmul@temp
  8675     0B6E                     l2553:
  8676     0B6E  083C               	movf	___flmul@temp,w
  8677     0B6F  00AC               	movwf	??___flmul
  8678     0B70  083D               	movf	___flmul@temp+1,w
  8679     0B71  00AD               	movwf	??___flmul+1
  8680     0B72  01AE               	clrf	??___flmul+2
  8681     0B73  01AF               	clrf	??___flmul+3
  8682     0B74  3008               	movlw	8
  8683     0B75                     u3925:
  8684     0B75  1003               	clrc
  8685     0B76  0DAC               	rlf	??___flmul,f
  8686     0B77  0DAD               	rlf	??___flmul+1,f
  8687     0B78  0DAE               	rlf	??___flmul+2,f
  8688     0B79  0DAF               	rlf	??___flmul+3,f
  8689     0B7A                     u3920:
  8690     0B7A  3EFF               	addlw	-1
  8691     0B7B  1D03               	skipz
  8692     0B7C  2B75               	goto	u3925
  8693     0B7D  082C               	movf	??___flmul,w
  8694     0B7E  07B8               	addwf	___flmul@prod,f
  8695     0B7F  082D               	movf	??___flmul+1,w
  8696     0B80  1103               	clrz
  8697     0B81  1803               	skipnc
  8698     0B82  3E01               	addlw	1
  8699     0B83  1903               	skipnz
  8700     0B84  2B86               	goto	u3931
  8701     0B85  07B9               	addwf	___flmul@prod+1,f
  8702     0B86                     u3931:
  8703     0B86  082E               	movf	??___flmul+2,w
  8704     0B87  1103               	clrz
  8705     0B88  1803               	skipnc
  8706     0B89  3E01               	addlw	1
  8707     0B8A  1903               	skipnz
  8708     0B8B  2B8D               	goto	u3932
  8709     0B8C  07BA               	addwf	___flmul@prod+2,f
  8710     0B8D                     u3932:
  8711     0B8D  082F               	movf	??___flmul+3,w
  8712     0B8E  1103               	clrz
  8713     0B8F  1803               	skipnc
  8714     0B90  3E01               	addlw	1
  8715     0B91  1903               	skipnz
  8716     0B92  2B94               	goto	u3933
  8717     0B93  07BB               	addwf	___flmul@prod+3,f
  8718     0B94                     u3933:
  8719     0B94                     l2555:
  8720     0B94  0832               	movf	___flmul@grs,w
  8721     0B95  00AC               	movwf	??___flmul
  8722     0B96  0833               	movf	___flmul@grs+1,w
  8723     0B97  00AD               	movwf	??___flmul+1
  8724     0B98  0834               	movf	___flmul@grs+2,w
  8725     0B99  00AE               	movwf	??___flmul+2
  8726     0B9A  0835               	movf	___flmul@grs+3,w
  8727     0B9B  00AF               	movwf	??___flmul+3
  8728     0B9C  3018               	movlw	24
  8729     0B9D                     u3945:
  8730     0B9D  1003               	clrc
  8731     0B9E  0CAF               	rrf	??___flmul+3,f
  8732     0B9F  0CAE               	rrf	??___flmul+2,f
  8733     0BA0  0CAD               	rrf	??___flmul+1,f
  8734     0BA1  0CAC               	rrf	??___flmul,f
  8735     0BA2                     u3940:
  8736     0BA2  3EFF               	addlw	-1
  8737     0BA3  1D03               	skipz
  8738     0BA4  2B9D               	goto	u3945
  8739     0BA5  082C               	movf	??___flmul,w
  8740     0BA6  07B8               	addwf	___flmul@prod,f
  8741     0BA7  082D               	movf	??___flmul+1,w
  8742     0BA8  1103               	clrz
  8743     0BA9  1803               	skipnc
  8744     0BAA  3E01               	addlw	1
  8745     0BAB  1903               	skipnz
  8746     0BAC  2BAE               	goto	u3951
  8747     0BAD  07B9               	addwf	___flmul@prod+1,f
  8748     0BAE                     u3951:
  8749     0BAE  082E               	movf	??___flmul+2,w
  8750     0BAF  1103               	clrz
  8751     0BB0  1803               	skipnc
  8752     0BB1  3E01               	addlw	1
  8753     0BB2  1903               	skipnz
  8754     0BB3  2BB5               	goto	u3952
  8755     0BB4  07BA               	addwf	___flmul@prod+2,f
  8756     0BB5                     u3952:
  8757     0BB5  082F               	movf	??___flmul+3,w
  8758     0BB6  1103               	clrz
  8759     0BB7  1803               	skipnc
  8760     0BB8  3E01               	addlw	1
  8761     0BB9  1903               	skipnz
  8762     0BBA  2BBC               	goto	u3953
  8763     0BBB  07BB               	addwf	___flmul@prod+3,f
  8764     0BBC                     u3953:
  8765     0BBC                     l2557:
  8766     0BBC  3008               	movlw	8
  8767     0BBD  00AC               	movwf	??___flmul
  8768     0BBE                     u3965:
  8769     0BBE  1003               	clrc
  8770     0BBF  0DB2               	rlf	___flmul@grs,f
  8771     0BC0  0DB3               	rlf	___flmul@grs+1,f
  8772     0BC1  0DB4               	rlf	___flmul@grs+2,f
  8773     0BC2  0DB5               	rlf	___flmul@grs+3,f
  8774     0BC3  0BAC               	decfsz	??___flmul,f
  8775     0BC4  2BBE               	goto	u3965
  8776     0BC5                     l2559:
  8777     0BC5  0837               	movf	___flmul@bexp,w
  8778     0BC6  0736               	addwf	___flmul@aexp,w
  8779     0BC7  00AC               	movwf	??___flmul
  8780     0BC8  01AD               	clrf	??___flmul+1
  8781     0BC9  0DAD               	rlf	??___flmul+1,f
  8782     0BCA  082C               	movf	??___flmul,w
  8783     0BCB  3E82               	addlw	130
  8784     0BCC  00BC               	movwf	___flmul@temp
  8785     0BCD  082D               	movf	??___flmul+1,w
  8786     0BCE  1803               	skipnc
  8787     0BCF  3E01               	addlw	1
  8788     0BD0  3EFF               	addlw	255
  8789     0BD1  00BD               	movwf	___flmul@temp+1
  8790     0BD2  2BF0               	goto	l2571
  8791     0BD3                     l2561:
  8792     0BD3  3001               	movlw	1
  8793     0BD4  00AC               	movwf	??___flmul
  8794     0BD5                     u3975:
  8795     0BD5  1003               	clrc
  8796     0BD6  0DB8               	rlf	___flmul@prod,f
  8797     0BD7  0DB9               	rlf	___flmul@prod+1,f
  8798     0BD8  0DBA               	rlf	___flmul@prod+2,f
  8799     0BD9  0DBB               	rlf	___flmul@prod+3,f
  8800     0BDA  0BAC               	decfsz	??___flmul,f
  8801     0BDB  2BD5               	goto	u3975
  8802     0BDC                     l2563:
  8803     0BDC  1FB5               	btfss	___flmul@grs+3,7
  8804     0BDD  2BDF               	goto	u3981
  8805     0BDE  2BE0               	goto	u3980
  8806     0BDF                     u3981:
  8807     0BDF  2BE1               	goto	l2567
  8808     0BE0                     u3980:
  8809     0BE0                     l2565:
  8810     0BE0  1438               	bsf	___flmul@prod,0
  8811     0BE1                     l2567:
  8812     0BE1  3001               	movlw	1
  8813     0BE2  00AC               	movwf	??___flmul
  8814     0BE3                     u3995:
  8815     0BE3  1003               	clrc
  8816     0BE4  0DB2               	rlf	___flmul@grs,f
  8817     0BE5  0DB3               	rlf	___flmul@grs+1,f
  8818     0BE6  0DB4               	rlf	___flmul@grs+2,f
  8819     0BE7  0DB5               	rlf	___flmul@grs+3,f
  8820     0BE8  0BAC               	decfsz	??___flmul,f
  8821     0BE9  2BE3               	goto	u3995
  8822     0BEA                     l2569:
  8823     0BEA  30FF               	movlw	255
  8824     0BEB  07BC               	addwf	___flmul@temp,f
  8825     0BEC  1803               	skipnc
  8826     0BED  0ABD               	incf	___flmul@temp+1,f
  8827     0BEE  30FF               	movlw	255
  8828     0BEF  07BD               	addwf	___flmul@temp+1,f
  8829     0BF0                     l2571:
  8830     0BF0  1FBA               	btfss	___flmul@prod+2,7
  8831     0BF1  2BF3               	goto	u4001
  8832     0BF2  2BF4               	goto	u4000
  8833     0BF3                     u4001:
  8834     0BF3  2BD3               	goto	l2561
  8835     0BF4                     u4000:
  8836     0BF4                     l2573:
  8837     0BF4  01B6               	clrf	___flmul@aexp
  8838     0BF5                     l2575:
  8839     0BF5  1FB5               	btfss	___flmul@grs+3,7
  8840     0BF6  2BF8               	goto	u4011
  8841     0BF7  2BF9               	goto	u4010
  8842     0BF8                     u4011:
  8843     0BF8  2C15               	goto	l2583
  8844     0BF9                     u4010:
  8845     0BF9                     l2577:
  8846     0BF9  30FF               	movlw	255
  8847     0BFA  0532               	andwf	___flmul@grs,w
  8848     0BFB  00AC               	movwf	??___flmul
  8849     0BFC  30FF               	movlw	255
  8850     0BFD  0533               	andwf	___flmul@grs+1,w
  8851     0BFE  00AD               	movwf	??___flmul+1
  8852     0BFF  30FF               	movlw	255
  8853     0C00  0534               	andwf	___flmul@grs+2,w
  8854     0C01  00AE               	movwf	??___flmul+2
  8855     0C02  307F               	movlw	127
  8856     0C03  0535               	andwf	___flmul@grs+3,w
  8857     0C04  00AF               	movwf	??___flmul+3
  8858     0C05  082F               	movf	??___flmul+3,w
  8859     0C06  042E               	iorwf	??___flmul+2,w
  8860     0C07  042D               	iorwf	??___flmul+1,w
  8861     0C08  042C               	iorwf	??___flmul,w
  8862     0C09  1903               	skipnz
  8863     0C0A  2C0C               	goto	u4021
  8864     0C0B  2C0D               	goto	u4020
  8865     0C0C                     u4021:
  8866     0C0C  2C10               	goto	l703
  8867     0C0D                     u4020:
  8868     0C0D                     l2579:
  8869     0C0D  01B6               	clrf	___flmul@aexp
  8870     0C0E  0AB6               	incf	___flmul@aexp,f
  8871     0C0F  2C15               	goto	l2583
  8872     0C10                     l703:
  8873     0C10  1C38               	btfss	___flmul@prod,0
  8874     0C11  2C13               	goto	u4031
  8875     0C12  2C14               	goto	u4030
  8876     0C13                     u4031:
  8877     0C13  2C15               	goto	l2583
  8878     0C14                     u4030:
  8879     0C14  2C0D               	goto	l2579
  8880     0C15                     l2583:
  8881     0C15  0836               	movf	___flmul@aexp,w
  8882     0C16  1903               	btfsc	3,2
  8883     0C17  2C19               	goto	u4041
  8884     0C18  2C1A               	goto	u4040
  8885     0C19                     u4041:
  8886     0C19  2C4B               	goto	l2593
  8887     0C1A                     u4040:
  8888     0C1A                     l2585:
  8889     0C1A  3001               	movlw	1
  8890     0C1B  07B8               	addwf	___flmul@prod,f
  8891     0C1C  3000               	movlw	0
  8892     0C1D  1803               	skipnc
  8893     0C1E  3001               	movlw	1
  8894     0C1F  07B9               	addwf	___flmul@prod+1,f
  8895     0C20  3000               	movlw	0
  8896     0C21  1803               	skipnc
  8897     0C22  3001               	movlw	1
  8898     0C23  07BA               	addwf	___flmul@prod+2,f
  8899     0C24  3000               	movlw	0
  8900     0C25  1803               	skipnc
  8901     0C26  3001               	movlw	1
  8902     0C27  07BB               	addwf	___flmul@prod+3,f
  8903     0C28                     l2587:
  8904     0C28  1C3B               	btfss	___flmul@prod+3,0
  8905     0C29  2C2B               	goto	u4051
  8906     0C2A  2C2C               	goto	u4050
  8907     0C2B                     u4051:
  8908     0C2B  2C4B               	goto	l2593
  8909     0C2C                     u4050:
  8910     0C2C                     l2589:
  8911     0C2C  0838               	movf	___flmul@prod,w
  8912     0C2D  00AC               	movwf	??___flmul
  8913     0C2E  0839               	movf	___flmul@prod+1,w
  8914     0C2F  00AD               	movwf	??___flmul+1
  8915     0C30  083A               	movf	___flmul@prod+2,w
  8916     0C31  00AE               	movwf	??___flmul+2
  8917     0C32  083B               	movf	___flmul@prod+3,w
  8918     0C33  00AF               	movwf	??___flmul+3
  8919     0C34  3001               	movlw	1
  8920     0C35  00B0               	movwf	??___flmul+4
  8921     0C36                     u4065:
  8922     0C36  0D2F               	rlf	??___flmul+3,w
  8923     0C37  0CAF               	rrf	??___flmul+3,f
  8924     0C38  0CAE               	rrf	??___flmul+2,f
  8925     0C39  0CAD               	rrf	??___flmul+1,f
  8926     0C3A  0CAC               	rrf	??___flmul,f
  8927     0C3B                     u4060:
  8928     0C3B  0BB0               	decfsz	??___flmul+4,f
  8929     0C3C  2C36               	goto	u4065
  8930     0C3D  082F               	movf	??___flmul+3,w
  8931     0C3E  00BB               	movwf	___flmul@prod+3
  8932     0C3F  082E               	movf	??___flmul+2,w
  8933     0C40  00BA               	movwf	___flmul@prod+2
  8934     0C41  082D               	movf	??___flmul+1,w
  8935     0C42  00B9               	movwf	___flmul@prod+1
  8936     0C43  082C               	movf	??___flmul,w
  8937     0C44  00B8               	movwf	___flmul@prod
  8938     0C45                     l2591:
  8939     0C45  3001               	movlw	1
  8940     0C46  07BC               	addwf	___flmul@temp,f
  8941     0C47  1803               	skipnc
  8942     0C48  0ABD               	incf	___flmul@temp+1,f
  8943     0C49  3000               	movlw	0
  8944     0C4A  07BD               	addwf	___flmul@temp+1,f
  8945     0C4B                     l2593:
  8946     0C4B  083D               	movf	___flmul@temp+1,w
  8947     0C4C  3A80               	xorlw	128
  8948     0C4D  00FF               	movwf	btemp+1
  8949     0C4E  3080               	movlw	128
  8950     0C4F  027F               	subwf	btemp+1,w
  8951     0C50  1D03               	skipz
  8952     0C51  2C54               	goto	u4075
  8953     0C52  30FF               	movlw	255
  8954     0C53  023C               	subwf	___flmul@temp,w
  8955     0C54                     u4075:
  8956     0C54  1C03               	skipc
  8957     0C55  2C57               	goto	u4071
  8958     0C56  2C58               	goto	u4070
  8959     0C57                     u4071:
  8960     0C57  2C63               	goto	l2597
  8961     0C58                     u4070:
  8962     0C58                     l2595:
  8963     0C58  307F               	movlw	127
  8964     0C59  1283               	bcf	3,5	;RP0=0, select bank0
  8965     0C5A  1303               	bcf	3,6	;RP1=0, select bank0
  8966     0C5B  00BB               	movwf	___flmul@prod+3
  8967     0C5C  3080               	movlw	128
  8968     0C5D  00BA               	movwf	___flmul@prod+2
  8969     0C5E  3000               	movlw	0
  8970     0C5F  00B9               	movwf	___flmul@prod+1
  8971     0C60  3000               	movlw	0
  8972     0C61  00B8               	movwf	___flmul@prod
  8973     0C62  2C94               	goto	l709
  8974     0C63                     l2597:
  8975     0C63  1283               	bcf	3,5	;RP0=0, select bank0
  8976     0C64  1303               	bcf	3,6	;RP1=0, select bank0
  8977     0C65  083D               	movf	___flmul@temp+1,w
  8978     0C66  3A80               	xorlw	128
  8979     0C67  00FF               	movwf	btemp+1
  8980     0C68  3080               	movlw	128
  8981     0C69  027F               	subwf	btemp+1,w
  8982     0C6A  1D03               	skipz
  8983     0C6B  2C6E               	goto	u4085
  8984     0C6C  3001               	movlw	1
  8985     0C6D  023C               	subwf	___flmul@temp,w
  8986     0C6E                     u4085:
  8987     0C6E  1803               	skipnc
  8988     0C6F  2C71               	goto	u4081
  8989     0C70  2C72               	goto	u4080
  8990     0C71                     u4081:
  8991     0C71  2C7E               	goto	l2603
  8992     0C72                     u4080:
  8993     0C72                     l2599:
  8994     0C72  3000               	movlw	0
  8995     0C73  1283               	bcf	3,5	;RP0=0, select bank0
  8996     0C74  1303               	bcf	3,6	;RP1=0, select bank0
  8997     0C75  00BB               	movwf	___flmul@prod+3
  8998     0C76  3000               	movlw	0
  8999     0C77  00BA               	movwf	___flmul@prod+2
  9000     0C78  3000               	movlw	0
  9001     0C79  00B9               	movwf	___flmul@prod+1
  9002     0C7A  3000               	movlw	0
  9003     0C7B  00B8               	movwf	___flmul@prod
  9004     0C7C                     l2601:
  9005     0C7C  01B1               	clrf	___flmul@sign
  9006     0C7D  2C94               	goto	l709
  9007     0C7E                     l2603:
  9008     0C7E  1283               	bcf	3,5	;RP0=0, select bank0
  9009     0C7F  1303               	bcf	3,6	;RP1=0, select bank0
  9010     0C80  083C               	movf	___flmul@temp,w
  9011     0C81  00B7               	movwf	___flmul@bexp
  9012     0C82  30FF               	movlw	255
  9013     0C83  05B8               	andwf	___flmul@prod,f
  9014     0C84  30FF               	movlw	255
  9015     0C85  05B9               	andwf	___flmul@prod+1,f
  9016     0C86  307F               	movlw	127
  9017     0C87  05BA               	andwf	___flmul@prod+2,f
  9018     0C88  3000               	movlw	0
  9019     0C89  05BB               	andwf	___flmul@prod+3,f
  9020     0C8A                     l2605:
  9021     0C8A  1C37               	btfss	___flmul@bexp,0
  9022     0C8B  2C8D               	goto	u4091
  9023     0C8C  2C8E               	goto	u4090
  9024     0C8D                     u4091:
  9025     0C8D  2C8F               	goto	l2609
  9026     0C8E                     u4090:
  9027     0C8E                     l2607:
  9028     0C8E  17BA               	bsf	___flmul@prod+2,7
  9029     0C8F                     l2609:
  9030     0C8F  0837               	movf	___flmul@bexp,w
  9031     0C90  00AC               	movwf	??___flmul
  9032     0C91  1003               	clrc
  9033     0C92  0C2C               	rrf	??___flmul,w
  9034     0C93  00BB               	movwf	___flmul@prod+3
  9035     0C94                     l709:
  9036     0C94  0831               	movf	___flmul@sign,w
  9037     0C95  00AC               	movwf	??___flmul
  9038     0C96  082C               	movf	??___flmul,w
  9039     0C97  04BB               	iorwf	___flmul@prod+3,f
  9040     0C98                     l2611:
  9041     0C98  083B               	movf	___flmul@prod+3,w
  9042     0C99  00A7               	movwf	?___flmul+3
  9043     0C9A  083A               	movf	___flmul@prod+2,w
  9044     0C9B  00A6               	movwf	?___flmul+2
  9045     0C9C  0839               	movf	___flmul@prod+1,w
  9046     0C9D  00A5               	movwf	?___flmul+1
  9047     0C9E  0838               	movf	___flmul@prod,w
  9048     0C9F  00A4               	movwf	?___flmul
  9049     0CA0                     l697:
  9050     0CA0  0008               	return
  9051     0CA1                     __end_of___flmul:
  9052                           
  9053                           	psect	text25
  9054     10AE                     __ptext25:	
  9055 ;; *************** function __Umul8_16 *****************
  9056 ;; Defined at:
  9057 ;;		line 4 in file "C:\Program Files\Microchip\xc8\v2.40\pic\sources\c90\common\Umul8_16.c"
  9058 ;; Parameters:    Size  Location     Type
  9059 ;;  multiplier      1    wreg     unsigned char 
  9060 ;;  multiplicand    1    0[COMMON] unsigned char 
  9061 ;; Auto vars:     Size  Location     Type
  9062 ;;  multiplier      1    8[COMMON] unsigned char 
  9063 ;;  word_mpld       2    6[COMMON] unsigned int 
  9064 ;;  product         2    4[COMMON] unsigned int 
  9065 ;; Return value:  Size  Location     Type
  9066 ;;                  2    0[COMMON] unsigned int 
  9067 ;; Registers used:
  9068 ;;		wreg, status,2, status,0
  9069 ;; Tracked objects:
  9070 ;;		On entry : 0/0
  9071 ;;		On exit  : 0/0
  9072 ;;		Unchanged: 0/0
  9073 ;; Data sizes:     COMMON   BANK0   BANK1   BANK3   BANK2
  9074 ;;      Params:         2       0       0       0       0
  9075 ;;      Locals:         5       0       0       0       0
  9076 ;;      Temps:          2       0       0       0       0
  9077 ;;      Totals:         9       0       0       0       0
  9078 ;;Total ram usage:        9 bytes
  9079 ;; Hardware stack levels used: 1
  9080 ;; This function calls:
  9081 ;;		Nothing
  9082 ;; This function is called by:
  9083 ;;		___flmul
  9084 ;; This function uses a non-reentrant model
  9085 ;;
  9086                           
  9087     10AE                     __Umul8_16:	
  9088                           ;psect for function __Umul8_16
  9089                           
  9090                           
  9091                           ;incstack = 0
  9092                           ; Regs used in __Umul8_16: [wreg+status,2+status,0]
  9093                           ;__Umul8_16@multiplier stored from wreg
  9094     10AE  00F8               	movwf	__Umul8_16@multiplier
  9095     10AF                     l2137:
  9096     10AF  01F4               	clrf	__Umul8_16@product
  9097     10B0  01F5               	clrf	__Umul8_16@product+1
  9098     10B1                     l2139:
  9099     10B1  0870               	movf	__Umul8_16@multiplicand,w
  9100     10B2  00F2               	movwf	??__Umul8_16
  9101     10B3  01F3               	clrf	??__Umul8_16+1
  9102     10B4  0872               	movf	??__Umul8_16,w
  9103     10B5  00F6               	movwf	__Umul8_16@word_mpld
  9104     10B6  0873               	movf	??__Umul8_16+1,w
  9105     10B7  00F7               	movwf	__Umul8_16@word_mpld+1
  9106     10B8                     l2141:
  9107     10B8  1C78               	btfss	__Umul8_16@multiplier,0
  9108     10B9  28BB               	goto	u2921
  9109     10BA  28BC               	goto	u2920
  9110     10BB                     u2921:
  9111     10BB  28C2               	goto	l716
  9112     10BC                     u2920:
  9113     10BC                     l2143:
  9114     10BC  0876               	movf	__Umul8_16@word_mpld,w
  9115     10BD  07F4               	addwf	__Umul8_16@product,f
  9116     10BE  1803               	skipnc
  9117     10BF  0AF5               	incf	__Umul8_16@product+1,f
  9118     10C0  0877               	movf	__Umul8_16@word_mpld+1,w
  9119     10C1  07F5               	addwf	__Umul8_16@product+1,f
  9120     10C2                     l716:
  9121     10C2  3001               	movlw	1
  9122     10C3                     u2935:
  9123     10C3  1003               	clrc
  9124     10C4  0DF6               	rlf	__Umul8_16@word_mpld,f
  9125     10C5  0DF7               	rlf	__Umul8_16@word_mpld+1,f
  9126     10C6  3EFF               	addlw	-1
  9127     10C7  1D03               	skipz
  9128     10C8  28C3               	goto	u2935
  9129     10C9  1003               	clrc
  9130     10CA  0CF8               	rrf	__Umul8_16@multiplier,f
  9131     10CB                     l2145:
  9132     10CB  0878               	movf	__Umul8_16@multiplier,w
  9133     10CC  1D03               	btfss	3,2
  9134     10CD  28CF               	goto	u2941
  9135     10CE  28D0               	goto	u2940
  9136     10CF                     u2941:
  9137     10CF  28B8               	goto	l2141
  9138     10D0                     u2940:
  9139     10D0                     l2147:
  9140     10D0  0875               	movf	__Umul8_16@product+1,w
  9141     10D1  00F1               	movwf	?__Umul8_16+1
  9142     10D2  0874               	movf	__Umul8_16@product,w
  9143     10D3  00F0               	movwf	?__Umul8_16
  9144     10D4                     l718:
  9145     10D4  0008               	return
  9146     10D5                     __end_of__Umul8_16:
  9147                           
  9148                           	psect	text26
  9149     11CA                     __ptext26:	
  9150 ;; *************** function ___fldiv *****************
  9151 ;; Defined at:
  9152 ;;		line 8 in file "C:\Program Files\Microchip\xc8\v2.40\pic\sources\c90\common\sprcdiv.c"
  9153 ;; Parameters:    Size  Location     Type
  9154 ;;  a               4   30[BANK0 ] unsigned int 
  9155 ;;  b               4   34[BANK0 ] unsigned int 
  9156 ;; Auto vars:     Size  Location     Type
  9157 ;;  grs             4   50[BANK0 ] unsigned long 
  9158 ;;  rem             4   43[BANK0 ] unsigned long 
  9159 ;;  new_exp         2   48[BANK0 ] int 
  9160 ;;  aexp            1   55[BANK0 ] unsigned char 
  9161 ;;  bexp            1   54[BANK0 ] unsigned char 
  9162 ;;  sign            1   47[BANK0 ] unsigned char 
  9163 ;; Return value:  Size  Location     Type
  9164 ;;                  4   30[BANK0 ] unsigned char 
  9165 ;; Registers used:
  9166 ;;		wreg, status,2, status,0, btemp+1
  9167 ;; Tracked objects:
  9168 ;;		On entry : 0/0
  9169 ;;		On exit  : 0/0
  9170 ;;		Unchanged: 0/0
  9171 ;; Data sizes:     COMMON   BANK0   BANK1   BANK3   BANK2
  9172 ;;      Params:         0       8       0       0       0
  9173 ;;      Locals:         0      13       0       0       0
  9174 ;;      Temps:          0       5       0       0       0
  9175 ;;      Totals:         0      26       0       0       0
  9176 ;;Total ram usage:       26 bytes
  9177 ;; Hardware stack levels used: 1
  9178 ;; This function calls:
  9179 ;;		Nothing
  9180 ;; This function is called by:
  9181 ;;		_measure
  9182 ;; This function uses a non-reentrant model
  9183 ;;
  9184                           
  9185     11CA                     ___fldiv:	
  9186                           ;psect for function ___fldiv
  9187                           
  9188     11CA                     l2939:	
  9189                           ;incstack = 0
  9190                           ; Regs used in ___fldiv: [wreg+status,2+status,0+btemp+1]
  9191                           
  9192     11CA  1283               	bcf	3,5	;RP0=0, select bank0
  9193     11CB  1303               	bcf	3,6	;RP1=0, select bank0
  9194     11CC  0845               	movf	___fldiv@b+3,w
  9195     11CD  3980               	andlw	128
  9196     11CE  00CF               	movwf	___fldiv@sign
  9197     11CF                     l2941:
  9198     11CF  0845               	movf	___fldiv@b+3,w
  9199     11D0  00C6               	movwf	??___fldiv
  9200     11D1  0746               	addwf	??___fldiv,w
  9201     11D2  00D6               	movwf	___fldiv@bexp
  9202     11D3                     l2943:
  9203     11D3  1FC4               	btfss	___fldiv@b+2,7
  9204     11D4  29D6               	goto	u5021
  9205     11D5  29D7               	goto	u5020
  9206     11D6                     u5021:
  9207     11D6  29D8               	goto	l2947
  9208     11D7                     u5020:
  9209     11D7                     l2945:
  9210     11D7  1456               	bsf	___fldiv@bexp,0
  9211     11D8                     l2947:
  9212     11D8  0856               	movf	___fldiv@bexp,w
  9213     11D9  1903               	btfsc	3,2
  9214     11DA  29DC               	goto	u5031
  9215     11DB  29DD               	goto	u5030
  9216     11DC                     u5031:
  9217     11DC  29ED               	goto	l2957
  9218     11DD                     u5030:
  9219     11DD                     l2949:
  9220     11DD  0A56               	incf	___fldiv@bexp,w
  9221     11DE  1D03               	btfss	3,2
  9222     11DF  29E1               	goto	u5041
  9223     11E0  29E2               	goto	u5040
  9224     11E1                     u5041:
  9225     11E1  29EA               	goto	l2953
  9226     11E2                     u5040:
  9227     11E2                     l2951:
  9228     11E2  3000               	movlw	0
  9229     11E3  00C5               	movwf	___fldiv@b+3
  9230     11E4  3000               	movlw	0
  9231     11E5  00C4               	movwf	___fldiv@b+2
  9232     11E6  3000               	movlw	0
  9233     11E7  00C3               	movwf	___fldiv@b+1
  9234     11E8  3000               	movlw	0
  9235     11E9  00C2               	movwf	___fldiv@b
  9236     11EA                     l2953:
  9237     11EA  17C4               	bsf	___fldiv@b+2,7
  9238     11EB                     l2955:
  9239     11EB  01C5               	clrf	___fldiv@b+3
  9240     11EC  29F5               	goto	l2959
  9241     11ED                     l2957:
  9242     11ED  3000               	movlw	0
  9243     11EE  00C5               	movwf	___fldiv@b+3
  9244     11EF  3000               	movlw	0
  9245     11F0  00C4               	movwf	___fldiv@b+2
  9246     11F1  3000               	movlw	0
  9247     11F2  00C3               	movwf	___fldiv@b+1
  9248     11F3  3000               	movlw	0
  9249     11F4  00C2               	movwf	___fldiv@b
  9250     11F5                     l2959:
  9251     11F5  0841               	movf	___fldiv@a+3,w
  9252     11F6  3980               	andlw	128
  9253     11F7  00C6               	movwf	??___fldiv
  9254     11F8  0846               	movf	??___fldiv,w
  9255     11F9  06CF               	xorwf	___fldiv@sign,f
  9256     11FA                     l2961:
  9257     11FA  0841               	movf	___fldiv@a+3,w
  9258     11FB  00C6               	movwf	??___fldiv
  9259     11FC  0746               	addwf	??___fldiv,w
  9260     11FD  00D7               	movwf	___fldiv@aexp
  9261     11FE                     l2963:
  9262     11FE  1FC0               	btfss	___fldiv@a+2,7
  9263     11FF  2A01               	goto	u5051
  9264     1200  2A02               	goto	u5050
  9265     1201                     u5051:
  9266     1201  2A03               	goto	l2967
  9267     1202                     u5050:
  9268     1202                     l2965:
  9269     1202  1457               	bsf	___fldiv@aexp,0
  9270     1203                     l2967:
  9271     1203  0857               	movf	___fldiv@aexp,w
  9272     1204  1903               	btfsc	3,2
  9273     1205  2A07               	goto	u5061
  9274     1206  2A08               	goto	u5060
  9275     1207                     u5061:
  9276     1207  2A18               	goto	l2977
  9277     1208                     u5060:
  9278     1208                     l2969:
  9279     1208  0A57               	incf	___fldiv@aexp,w
  9280     1209  1D03               	btfss	3,2
  9281     120A  2A0C               	goto	u5071
  9282     120B  2A0D               	goto	u5070
  9283     120C                     u5071:
  9284     120C  2A15               	goto	l2973
  9285     120D                     u5070:
  9286     120D                     l2971:
  9287     120D  3000               	movlw	0
  9288     120E  00C1               	movwf	___fldiv@a+3
  9289     120F  3000               	movlw	0
  9290     1210  00C0               	movwf	___fldiv@a+2
  9291     1211  3000               	movlw	0
  9292     1212  00BF               	movwf	___fldiv@a+1
  9293     1213  3000               	movlw	0
  9294     1214  00BE               	movwf	___fldiv@a
  9295     1215                     l2973:
  9296     1215  17C0               	bsf	___fldiv@a+2,7
  9297     1216                     l2975:
  9298     1216  01C1               	clrf	___fldiv@a+3
  9299     1217  2A20               	goto	l657
  9300     1218                     l2977:
  9301     1218  3000               	movlw	0
  9302     1219  00C1               	movwf	___fldiv@a+3
  9303     121A  3000               	movlw	0
  9304     121B  00C0               	movwf	___fldiv@a+2
  9305     121C  3000               	movlw	0
  9306     121D  00BF               	movwf	___fldiv@a+1
  9307     121E  3000               	movlw	0
  9308     121F  00BE               	movwf	___fldiv@a
  9309     1220                     l657:
  9310     1220  0841               	movf	___fldiv@a+3,w
  9311     1221  0440               	iorwf	___fldiv@a+2,w
  9312     1222  043F               	iorwf	___fldiv@a+1,w
  9313     1223  043E               	iorwf	___fldiv@a,w
  9314     1224  1D03               	skipz
  9315     1225  2A27               	goto	u5081
  9316     1226  2A28               	goto	u5080
  9317     1227                     u5081:
  9318     1227  2A41               	goto	l2987
  9319     1228                     u5080:
  9320     1228                     l2979:
  9321     1228  3000               	movlw	0
  9322     1229  00C5               	movwf	___fldiv@b+3
  9323     122A  3000               	movlw	0
  9324     122B  00C4               	movwf	___fldiv@b+2
  9325     122C  3000               	movlw	0
  9326     122D  00C3               	movwf	___fldiv@b+1
  9327     122E  3000               	movlw	0
  9328     122F  00C2               	movwf	___fldiv@b
  9329     1230  3080               	movlw	128
  9330     1231  04C4               	iorwf	___fldiv@b+2,f
  9331     1232  307F               	movlw	127
  9332     1233  04C5               	iorwf	___fldiv@b+3,f
  9333     1234                     l2981:
  9334     1234  084F               	movf	___fldiv@sign,w
  9335     1235  00C6               	movwf	??___fldiv
  9336     1236  0846               	movf	??___fldiv,w
  9337     1237  04C5               	iorwf	___fldiv@b+3,f
  9338     1238                     l2983:
  9339     1238  0845               	movf	___fldiv@b+3,w
  9340     1239  00C1               	movwf	?___fldiv+3
  9341     123A  0844               	movf	___fldiv@b+2,w
  9342     123B  00C0               	movwf	?___fldiv+2
  9343     123C  0843               	movf	___fldiv@b+1,w
  9344     123D  00BF               	movwf	?___fldiv+1
  9345     123E  0842               	movf	___fldiv@b,w
  9346     123F  00BE               	movwf	?___fldiv
  9347     1240  2B9C               	goto	l659
  9348     1241                     l2987:
  9349     1241  0856               	movf	___fldiv@bexp,w
  9350     1242  1D03               	btfss	3,2
  9351     1243  2A45               	goto	u5091
  9352     1244  2A46               	goto	u5090
  9353     1245                     u5091:
  9354     1245  2A4F               	goto	l2993
  9355     1246                     u5090:
  9356     1246                     l2989:
  9357     1246  3000               	movlw	0
  9358     1247  00C1               	movwf	?___fldiv+3
  9359     1248  3000               	movlw	0
  9360     1249  00C0               	movwf	?___fldiv+2
  9361     124A  3000               	movlw	0
  9362     124B  00BF               	movwf	?___fldiv+1
  9363     124C  3000               	movlw	0
  9364     124D  00BE               	movwf	?___fldiv
  9365     124E  2B9C               	goto	l659
  9366     124F                     l2993:
  9367     124F  0856               	movf	___fldiv@bexp,w
  9368     1250  00C6               	movwf	??___fldiv
  9369     1251  01C7               	clrf	??___fldiv+1
  9370     1252  0847               	movf	??___fldiv+1,w
  9371     1253  00C9               	movwf	??___fldiv+3
  9372     1254  0857               	movf	___fldiv@aexp,w
  9373     1255  0246               	subwf	??___fldiv,w
  9374     1256  00C8               	movwf	??___fldiv+2
  9375     1257  1C03               	skipc
  9376     1258  03C9               	decf	??___fldiv+3,f
  9377     1259  0848               	movf	??___fldiv+2,w
  9378     125A  3E7F               	addlw	127
  9379     125B  00D0               	movwf	___fldiv@new_exp
  9380     125C  0849               	movf	??___fldiv+3,w
  9381     125D  1803               	skipnc
  9382     125E  3E01               	addlw	1
  9383     125F  3E00               	addlw	0
  9384     1260  00D1               	movwf	___fldiv@new_exp+1
  9385     1261                     l2995:
  9386     1261  0845               	movf	___fldiv@b+3,w
  9387     1262  00CE               	movwf	___fldiv@rem+3
  9388     1263  0844               	movf	___fldiv@b+2,w
  9389     1264  00CD               	movwf	___fldiv@rem+2
  9390     1265  0843               	movf	___fldiv@b+1,w
  9391     1266  00CC               	movwf	___fldiv@rem+1
  9392     1267  0842               	movf	___fldiv@b,w
  9393     1268  00CB               	movwf	___fldiv@rem
  9394     1269                     l2997:
  9395     1269  3000               	movlw	0
  9396     126A  00C5               	movwf	___fldiv@b+3
  9397     126B  3000               	movlw	0
  9398     126C  00C4               	movwf	___fldiv@b+2
  9399     126D  3000               	movlw	0
  9400     126E  00C3               	movwf	___fldiv@b+1
  9401     126F  3000               	movlw	0
  9402     1270  00C2               	movwf	___fldiv@b
  9403     1271                     l2999:
  9404     1271  3000               	movlw	0
  9405     1272  00D5               	movwf	___fldiv@grs+3
  9406     1273  3000               	movlw	0
  9407     1274  00D4               	movwf	___fldiv@grs+2
  9408     1275  3000               	movlw	0
  9409     1276  00D3               	movwf	___fldiv@grs+1
  9410     1277  3000               	movlw	0
  9411     1278  00D2               	movwf	___fldiv@grs
  9412     1279                     l3001:
  9413     1279  01D7               	clrf	___fldiv@aexp
  9414     127A  2AC5               	goto	l3021
  9415     127B                     l3003:
  9416     127B  0857               	movf	___fldiv@aexp,w
  9417     127C  1903               	btfsc	3,2
  9418     127D  2A7F               	goto	u5101
  9419     127E  2A80               	goto	u5100
  9420     127F                     u5101:
  9421     127F  2AA0               	goto	l3013
  9422     1280                     u5100:
  9423     1280                     l3005:
  9424     1280  3001               	movlw	1
  9425     1281  00C6               	movwf	??___fldiv
  9426     1282                     u5115:
  9427     1282  1003               	clrc
  9428     1283  0DCB               	rlf	___fldiv@rem,f
  9429     1284  0DCC               	rlf	___fldiv@rem+1,f
  9430     1285  0DCD               	rlf	___fldiv@rem+2,f
  9431     1286  0DCE               	rlf	___fldiv@rem+3,f
  9432     1287  0BC6               	decfsz	??___fldiv,f
  9433     1288  2A82               	goto	u5115
  9434     1289  3001               	movlw	1
  9435     128A  00C6               	movwf	??___fldiv
  9436     128B                     u5125:
  9437     128B  1003               	clrc
  9438     128C  0DC2               	rlf	___fldiv@b,f
  9439     128D  0DC3               	rlf	___fldiv@b+1,f
  9440     128E  0DC4               	rlf	___fldiv@b+2,f
  9441     128F  0DC5               	rlf	___fldiv@b+3,f
  9442     1290  0BC6               	decfsz	??___fldiv,f
  9443     1291  2A8B               	goto	u5125
  9444     1292                     l3007:
  9445     1292  1FD5               	btfss	___fldiv@grs+3,7
  9446     1293  2A95               	goto	u5131
  9447     1294  2A96               	goto	u5130
  9448     1295                     u5131:
  9449     1295  2A97               	goto	l3011
  9450     1296                     u5130:
  9451     1296                     l3009:
  9452     1296  1442               	bsf	___fldiv@b,0
  9453     1297                     l3011:
  9454     1297  3001               	movlw	1
  9455     1298  00C6               	movwf	??___fldiv
  9456     1299                     u5145:
  9457     1299  1003               	clrc
  9458     129A  0DD2               	rlf	___fldiv@grs,f
  9459     129B  0DD3               	rlf	___fldiv@grs+1,f
  9460     129C  0DD4               	rlf	___fldiv@grs+2,f
  9461     129D  0DD5               	rlf	___fldiv@grs+3,f
  9462     129E  0BC6               	decfsz	??___fldiv,f
  9463     129F  2A99               	goto	u5145
  9464     12A0                     l3013:
  9465     12A0  0841               	movf	___fldiv@a+3,w
  9466     12A1  024E               	subwf	___fldiv@rem+3,w
  9467     12A2  1D03               	skipz
  9468     12A3  2AAE               	goto	u5155
  9469     12A4  0840               	movf	___fldiv@a+2,w
  9470     12A5  024D               	subwf	___fldiv@rem+2,w
  9471     12A6  1D03               	skipz
  9472     12A7  2AAE               	goto	u5155
  9473     12A8  083F               	movf	___fldiv@a+1,w
  9474     12A9  024C               	subwf	___fldiv@rem+1,w
  9475     12AA  1D03               	skipz
  9476     12AB  2AAE               	goto	u5155
  9477     12AC  083E               	movf	___fldiv@a,w
  9478     12AD  024B               	subwf	___fldiv@rem,w
  9479     12AE                     u5155:
  9480     12AE  1C03               	skipc
  9481     12AF  2AB1               	goto	u5151
  9482     12B0  2AB2               	goto	u5150
  9483     12B1                     u5151:
  9484     12B1  2AC1               	goto	l3019
  9485     12B2                     u5150:
  9486     12B2                     l3015:
  9487     12B2  1755               	bsf	___fldiv@grs+3,6
  9488     12B3                     l3017:
  9489     12B3  083E               	movf	___fldiv@a,w
  9490     12B4  02CB               	subwf	___fldiv@rem,f
  9491     12B5  083F               	movf	___fldiv@a+1,w
  9492     12B6  1C03               	skipc
  9493     12B7  0F3F               	incfsz	___fldiv@a+1,w
  9494     12B8  02CC               	subwf	___fldiv@rem+1,f
  9495     12B9  0840               	movf	___fldiv@a+2,w
  9496     12BA  1C03               	skipc
  9497     12BB  0F40               	incfsz	___fldiv@a+2,w
  9498     12BC  02CD               	subwf	___fldiv@rem+2,f
  9499     12BD  0841               	movf	___fldiv@a+3,w
  9500     12BE  1C03               	skipc
  9501     12BF  0F41               	incfsz	___fldiv@a+3,w
  9502     12C0  02CE               	subwf	___fldiv@rem+3,f
  9503     12C1                     l3019:
  9504     12C1  3001               	movlw	1
  9505     12C2  00C6               	movwf	??___fldiv
  9506     12C3  0846               	movf	??___fldiv,w
  9507     12C4  07D7               	addwf	___fldiv@aexp,f
  9508     12C5                     l3021:
  9509     12C5  301A               	movlw	26
  9510     12C6  0257               	subwf	___fldiv@aexp,w
  9511     12C7  1C03               	skipc
  9512     12C8  2ACA               	goto	u5161
  9513     12C9  2ACB               	goto	u5160
  9514     12CA                     u5161:
  9515     12CA  2A7B               	goto	l3003
  9516     12CB                     u5160:
  9517     12CB                     l3023:
  9518     12CB  084E               	movf	___fldiv@rem+3,w
  9519     12CC  044D               	iorwf	___fldiv@rem+2,w
  9520     12CD  044C               	iorwf	___fldiv@rem+1,w
  9521     12CE  044B               	iorwf	___fldiv@rem,w
  9522     12CF  1903               	skipnz
  9523     12D0  2AD2               	goto	u5171
  9524     12D1  2AD3               	goto	u5170
  9525     12D2                     u5171:
  9526     12D2  2AF2               	goto	l3037
  9527     12D3                     u5170:
  9528     12D3                     l3025:
  9529     12D3  1452               	bsf	___fldiv@grs,0
  9530     12D4  2AF2               	goto	l3037
  9531     12D5                     l3027:
  9532     12D5  3001               	movlw	1
  9533     12D6  00C6               	movwf	??___fldiv
  9534     12D7                     u5185:
  9535     12D7  1003               	clrc
  9536     12D8  0DC2               	rlf	___fldiv@b,f
  9537     12D9  0DC3               	rlf	___fldiv@b+1,f
  9538     12DA  0DC4               	rlf	___fldiv@b+2,f
  9539     12DB  0DC5               	rlf	___fldiv@b+3,f
  9540     12DC  0BC6               	decfsz	??___fldiv,f
  9541     12DD  2AD7               	goto	u5185
  9542     12DE                     l3029:
  9543     12DE  1FD5               	btfss	___fldiv@grs+3,7
  9544     12DF  2AE1               	goto	u5191
  9545     12E0  2AE2               	goto	u5190
  9546     12E1                     u5191:
  9547     12E1  2AE3               	goto	l3033
  9548     12E2                     u5190:
  9549     12E2                     l3031:
  9550     12E2  1442               	bsf	___fldiv@b,0
  9551     12E3                     l3033:
  9552     12E3  3001               	movlw	1
  9553     12E4  00C6               	movwf	??___fldiv
  9554     12E5                     u5205:
  9555     12E5  1003               	clrc
  9556     12E6  0DD2               	rlf	___fldiv@grs,f
  9557     12E7  0DD3               	rlf	___fldiv@grs+1,f
  9558     12E8  0DD4               	rlf	___fldiv@grs+2,f
  9559     12E9  0DD5               	rlf	___fldiv@grs+3,f
  9560     12EA  0BC6               	decfsz	??___fldiv,f
  9561     12EB  2AE5               	goto	u5205
  9562     12EC                     l3035:
  9563     12EC  30FF               	movlw	255
  9564     12ED  07D0               	addwf	___fldiv@new_exp,f
  9565     12EE  1803               	skipnc
  9566     12EF  0AD1               	incf	___fldiv@new_exp+1,f
  9567     12F0  30FF               	movlw	255
  9568     12F1  07D1               	addwf	___fldiv@new_exp+1,f
  9569     12F2                     l3037:
  9570     12F2  1FC4               	btfss	___fldiv@b+2,7
  9571     12F3  2AF5               	goto	u5211
  9572     12F4  2AF6               	goto	u5210
  9573     12F5                     u5211:
  9574     12F5  2AD5               	goto	l3027
  9575     12F6                     u5210:
  9576     12F6                     l3039:
  9577     12F6  01D7               	clrf	___fldiv@aexp
  9578     12F7                     l3041:
  9579     12F7  1FD5               	btfss	___fldiv@grs+3,7
  9580     12F8  2AFA               	goto	u5221
  9581     12F9  2AFB               	goto	u5220
  9582     12FA                     u5221:
  9583     12FA  2B17               	goto	l3049
  9584     12FB                     u5220:
  9585     12FB                     l3043:
  9586     12FB  30FF               	movlw	255
  9587     12FC  0552               	andwf	___fldiv@grs,w
  9588     12FD  00C6               	movwf	??___fldiv
  9589     12FE  30FF               	movlw	255
  9590     12FF  0553               	andwf	___fldiv@grs+1,w
  9591     1300  00C7               	movwf	??___fldiv+1
  9592     1301  30FF               	movlw	255
  9593     1302  0554               	andwf	___fldiv@grs+2,w
  9594     1303  00C8               	movwf	??___fldiv+2
  9595     1304  307F               	movlw	127
  9596     1305  0555               	andwf	___fldiv@grs+3,w
  9597     1306  00C9               	movwf	??___fldiv+3
  9598     1307  0849               	movf	??___fldiv+3,w
  9599     1308  0448               	iorwf	??___fldiv+2,w
  9600     1309  0447               	iorwf	??___fldiv+1,w
  9601     130A  0446               	iorwf	??___fldiv,w
  9602     130B  1903               	skipnz
  9603     130C  2B0E               	goto	u5231
  9604     130D  2B0F               	goto	u5230
  9605     130E                     u5231:
  9606     130E  2B12               	goto	l673
  9607     130F                     u5230:
  9608     130F                     l3045:
  9609     130F  01D7               	clrf	___fldiv@aexp
  9610     1310  0AD7               	incf	___fldiv@aexp,f
  9611     1311  2B17               	goto	l3049
  9612     1312                     l673:
  9613     1312  1C42               	btfss	___fldiv@b,0
  9614     1313  2B15               	goto	u5241
  9615     1314  2B16               	goto	u5240
  9616     1315                     u5241:
  9617     1315  2B17               	goto	l3049
  9618     1316                     u5240:
  9619     1316  2B0F               	goto	l3045
  9620     1317                     l3049:
  9621     1317  0857               	movf	___fldiv@aexp,w
  9622     1318  1903               	btfsc	3,2
  9623     1319  2B1B               	goto	u5251
  9624     131A  2B1C               	goto	u5250
  9625     131B                     u5251:
  9626     131B  2B4D               	goto	l3059
  9627     131C                     u5250:
  9628     131C                     l3051:
  9629     131C  3001               	movlw	1
  9630     131D  07C2               	addwf	___fldiv@b,f
  9631     131E  3000               	movlw	0
  9632     131F  1803               	skipnc
  9633     1320  3001               	movlw	1
  9634     1321  07C3               	addwf	___fldiv@b+1,f
  9635     1322  3000               	movlw	0
  9636     1323  1803               	skipnc
  9637     1324  3001               	movlw	1
  9638     1325  07C4               	addwf	___fldiv@b+2,f
  9639     1326  3000               	movlw	0
  9640     1327  1803               	skipnc
  9641     1328  3001               	movlw	1
  9642     1329  07C5               	addwf	___fldiv@b+3,f
  9643     132A                     l3053:
  9644     132A  1C45               	btfss	___fldiv@b+3,0
  9645     132B  2B2D               	goto	u5261
  9646     132C  2B2E               	goto	u5260
  9647     132D                     u5261:
  9648     132D  2B4D               	goto	l3059
  9649     132E                     u5260:
  9650     132E                     l3055:
  9651     132E  0842               	movf	___fldiv@b,w
  9652     132F  00C6               	movwf	??___fldiv
  9653     1330  0843               	movf	___fldiv@b+1,w
  9654     1331  00C7               	movwf	??___fldiv+1
  9655     1332  0844               	movf	___fldiv@b+2,w
  9656     1333  00C8               	movwf	??___fldiv+2
  9657     1334  0845               	movf	___fldiv@b+3,w
  9658     1335  00C9               	movwf	??___fldiv+3
  9659     1336  3001               	movlw	1
  9660     1337  00CA               	movwf	??___fldiv+4
  9661     1338                     u5275:
  9662     1338  0D49               	rlf	??___fldiv+3,w
  9663     1339  0CC9               	rrf	??___fldiv+3,f
  9664     133A  0CC8               	rrf	??___fldiv+2,f
  9665     133B  0CC7               	rrf	??___fldiv+1,f
  9666     133C  0CC6               	rrf	??___fldiv,f
  9667     133D                     u5270:
  9668     133D  0BCA               	decfsz	??___fldiv+4,f
  9669     133E  2B38               	goto	u5275
  9670     133F  0849               	movf	??___fldiv+3,w
  9671     1340  00C5               	movwf	___fldiv@b+3
  9672     1341  0848               	movf	??___fldiv+2,w
  9673     1342  00C4               	movwf	___fldiv@b+2
  9674     1343  0847               	movf	??___fldiv+1,w
  9675     1344  00C3               	movwf	___fldiv@b+1
  9676     1345  0846               	movf	??___fldiv,w
  9677     1346  00C2               	movwf	___fldiv@b
  9678     1347                     l3057:
  9679     1347  3001               	movlw	1
  9680     1348  07D0               	addwf	___fldiv@new_exp,f
  9681     1349  1803               	skipnc
  9682     134A  0AD1               	incf	___fldiv@new_exp+1,f
  9683     134B  3000               	movlw	0
  9684     134C  07D1               	addwf	___fldiv@new_exp+1,f
  9685     134D                     l3059:
  9686     134D  0851               	movf	___fldiv@new_exp+1,w
  9687     134E  3A80               	xorlw	128
  9688     134F  00FF               	movwf	btemp+1
  9689     1350  3080               	movlw	128
  9690     1351  027F               	subwf	btemp+1,w
  9691     1352  1D03               	skipz
  9692     1353  2B56               	goto	u5285
  9693     1354  30FF               	movlw	255
  9694     1355  0250               	subwf	___fldiv@new_exp,w
  9695     1356                     u5285:
  9696     1356  1C03               	skipc
  9697     1357  2B59               	goto	u5281
  9698     1358  2B5A               	goto	u5280
  9699     1359                     u5281:
  9700     1359  2B68               	goto	l3063
  9701     135A                     u5280:
  9702     135A                     l3061:
  9703     135A  30FF               	movlw	255
  9704     135B  1283               	bcf	3,5	;RP0=0, select bank0
  9705     135C  1303               	bcf	3,6	;RP1=0, select bank0
  9706     135D  00D0               	movwf	___fldiv@new_exp
  9707     135E  3000               	movlw	0
  9708     135F  00D1               	movwf	___fldiv@new_exp+1
  9709     1360  3000               	movlw	0
  9710     1361  00C5               	movwf	___fldiv@b+3
  9711     1362  3000               	movlw	0
  9712     1363  00C4               	movwf	___fldiv@b+2
  9713     1364  3000               	movlw	0
  9714     1365  00C3               	movwf	___fldiv@b+1
  9715     1366  3000               	movlw	0
  9716     1367  00C2               	movwf	___fldiv@b
  9717     1368                     l3063:
  9718     1368  1283               	bcf	3,5	;RP0=0, select bank0
  9719     1369  1303               	bcf	3,6	;RP1=0, select bank0
  9720     136A  0851               	movf	___fldiv@new_exp+1,w
  9721     136B  3A80               	xorlw	128
  9722     136C  00FF               	movwf	btemp+1
  9723     136D  3080               	movlw	128
  9724     136E  027F               	subwf	btemp+1,w
  9725     136F  1D03               	skipz
  9726     1370  2B73               	goto	u5295
  9727     1371  3001               	movlw	1
  9728     1372  0250               	subwf	___fldiv@new_exp,w
  9729     1373                     u5295:
  9730     1373  1803               	skipnc
  9731     1374  2B76               	goto	u5291
  9732     1375  2B77               	goto	u5290
  9733     1376                     u5291:
  9734     1376  2B84               	goto	l679
  9735     1377                     u5290:
  9736     1377                     l3065:
  9737     1377  1283               	bcf	3,5	;RP0=0, select bank0
  9738     1378  1303               	bcf	3,6	;RP1=0, select bank0
  9739     1379  01D0               	clrf	___fldiv@new_exp
  9740     137A  01D1               	clrf	___fldiv@new_exp+1
  9741     137B                     l3067:
  9742     137B  3000               	movlw	0
  9743     137C  00C5               	movwf	___fldiv@b+3
  9744     137D  3000               	movlw	0
  9745     137E  00C4               	movwf	___fldiv@b+2
  9746     137F  3000               	movlw	0
  9747     1380  00C3               	movwf	___fldiv@b+1
  9748     1381  3000               	movlw	0
  9749     1382  00C2               	movwf	___fldiv@b
  9750     1383                     l3069:
  9751     1383  01CF               	clrf	___fldiv@sign
  9752     1384                     l679:
  9753     1384  1283               	bcf	3,5	;RP0=0, select bank0
  9754     1385  1303               	bcf	3,6	;RP1=0, select bank0
  9755     1386  0850               	movf	___fldiv@new_exp,w
  9756     1387  00D6               	movwf	___fldiv@bexp
  9757     1388                     l3071:
  9758     1388  1C56               	btfss	___fldiv@bexp,0
  9759     1389  2B8B               	goto	u5301
  9760     138A  2B8C               	goto	u5300
  9761     138B                     u5301:
  9762     138B  2B8E               	goto	l3075
  9763     138C                     u5300:
  9764     138C                     l3073:
  9765     138C  17C4               	bsf	___fldiv@b+2,7
  9766     138D  2B92               	goto	l681
  9767     138E                     l3075:
  9768     138E  307F               	movlw	127
  9769     138F  00C6               	movwf	??___fldiv
  9770     1390  0846               	movf	??___fldiv,w
  9771     1391  05C4               	andwf	___fldiv@b+2,f
  9772     1392                     l681:
  9773     1392  0856               	movf	___fldiv@bexp,w
  9774     1393  00C6               	movwf	??___fldiv
  9775     1394  1003               	clrc
  9776     1395  0C46               	rrf	??___fldiv,w
  9777     1396  00C5               	movwf	___fldiv@b+3
  9778     1397  084F               	movf	___fldiv@sign,w
  9779     1398  00C6               	movwf	??___fldiv
  9780     1399  0846               	movf	??___fldiv,w
  9781     139A  04C5               	iorwf	___fldiv@b+3,f
  9782     139B  2A38               	goto	l2983
  9783     139C                     l659:
  9784     139C  0008               	return
  9785     139D                     __end_of___fldiv:
  9786                           
  9787                           	psect	text27
  9788     109E                     __ptext27:	
  9789 ;; *************** function _initialiseUART *****************
  9790 ;; Defined at:
  9791 ;;		line 3 in file "usart.c"
  9792 ;; Parameters:    Size  Location     Type
  9793 ;;		None
  9794 ;; Auto vars:     Size  Location     Type
  9795 ;;		None
  9796 ;; Return value:  Size  Location     Type
  9797 ;;                  1    wreg      void 
  9798 ;; Registers used:
  9799 ;;		wreg
  9800 ;; Tracked objects:
  9801 ;;		On entry : 0/0
  9802 ;;		On exit  : 0/0
  9803 ;;		Unchanged: 0/0
  9804 ;; Data sizes:     COMMON   BANK0   BANK1   BANK3   BANK2
  9805 ;;      Params:         0       0       0       0       0
  9806 ;;      Locals:         0       0       0       0       0
  9807 ;;      Temps:          0       0       0       0       0
  9808 ;;      Totals:         0       0       0       0       0
  9809 ;;Total ram usage:        0 bytes
  9810 ;; Hardware stack levels used: 1
  9811 ;; This function calls:
  9812 ;;		Nothing
  9813 ;; This function is called by:
  9814 ;;		_main
  9815 ;; This function uses a non-reentrant model
  9816 ;;
  9817                           
  9818     109E                     _initialiseUART:	
  9819                           ;psect for function _initialiseUART
  9820                           
  9821     109E                     l3125:	
  9822                           ;incstack = 0
  9823                           ; Regs used in _initialiseUART: [wreg]
  9824                           
  9825                           
  9826                           ;usart.c: 6:   TRISC6 = 1;
  9827     109E  1683               	bsf	3,5	;RP0=1, select bank1
  9828     109F  1303               	bcf	3,6	;RP1=0, select bank1
  9829     10A0  1707               	bsf	7,6	;volatile
  9830                           
  9831                           ;usart.c: 7:   TRISC7 = 1;
  9832     10A1  1787               	bsf	7,7	;volatile
  9833                           
  9834                           ;usart.c: 8:   TRISC7 = 1;
  9835     10A2  1787               	bsf	7,7	;volatile
  9836     10A3                     l3127:
  9837                           
  9838                           ;usart.c: 9:   SPBRG=12;
  9839     10A3  300C               	movlw	12
  9840     10A4  0099               	movwf	25	;volatile
  9841     10A5                     l3129:
  9842                           
  9843                           ;usart.c: 10:   TX9 = 0;
  9844     10A5  1318               	bcf	24,6	;volatile
  9845     10A6                     l3131:
  9846                           
  9847                           ;usart.c: 11:   TXEN = 1;
  9848     10A6  1698               	bsf	24,5	;volatile
  9849     10A7                     l3133:
  9850                           
  9851                           ;usart.c: 12:   SYNC = 0;
  9852     10A7  1218               	bcf	24,4	;volatile
  9853     10A8                     l3135:
  9854                           
  9855                           ;usart.c: 13:   BRGH = 1;
  9856     10A8  1518               	bsf	24,2	;volatile
  9857     10A9                     l3137:
  9858                           
  9859                           ;usart.c: 14:   TX9D = 0;
  9860     10A9  1018               	bcf	24,0	;volatile
  9861     10AA                     l3139:
  9862                           
  9863                           ;usart.c: 15:   SPEN = 1;
  9864     10AA  1283               	bcf	3,5	;RP0=0, select bank0
  9865     10AB  1303               	bcf	3,6	;RP1=0, select bank0
  9866     10AC  1798               	bsf	24,7	;volatile
  9867     10AD                     l49:
  9868     10AD  0008               	return
  9869     10AE                     __end_of_initialiseUART:
  9870                           
  9871                           	psect	text28
  9872     1CFF                     __ptext28:	
  9873 ;; *************** function _initTermoDatchik *****************
  9874 ;; Defined at:
  9875 ;;		line 3 in file "measure.c"
  9876 ;; Parameters:    Size  Location     Type
  9877 ;;		None
  9878 ;; Auto vars:     Size  Location     Type
  9879 ;;		None
  9880 ;; Return value:  Size  Location     Type
  9881 ;;                  1    wreg      void 
  9882 ;; Registers used:
  9883 ;;		wreg
  9884 ;; Tracked objects:
  9885 ;;		On entry : 0/0
  9886 ;;		On exit  : 0/0
  9887 ;;		Unchanged: 0/0
  9888 ;; Data sizes:     COMMON   BANK0   BANK1   BANK3   BANK2
  9889 ;;      Params:         0       0       0       0       0
  9890 ;;      Locals:         0       0       0       0       0
  9891 ;;      Temps:          0       0       0       0       0
  9892 ;;      Totals:         0       0       0       0       0
  9893 ;;Total ram usage:        0 bytes
  9894 ;; Hardware stack levels used: 1
  9895 ;; This function calls:
  9896 ;;		Nothing
  9897 ;; This function is called by:
  9898 ;;		_main
  9899 ;; This function uses a non-reentrant model
  9900 ;;
  9901                           
  9902     1CFF                     _initTermoDatchik:	
  9903                           ;psect for function _initTermoDatchik
  9904                           
  9905     1CFF                     l3141:	
  9906                           ;incstack = 0
  9907                           ; Regs used in _initTermoDatchik: [wreg]
  9908                           
  9909                           
  9910                           ;measure.c: 5:     TRISA=0x01;
  9911     1CFF  3001               	movlw	1
  9912     1D00  1683               	bsf	3,5	;RP0=1, select bank1
  9913     1D01  1303               	bcf	3,6	;RP1=0, select bank1
  9914     1D02  0085               	movwf	5	;volatile
  9915                           
  9916                           ;measure.c: 6:   PORTA = 0x01;
  9917     1D03  3001               	movlw	1
  9918     1D04  1283               	bcf	3,5	;RP0=0, select bank0
  9919     1D05  1303               	bcf	3,6	;RP1=0, select bank0
  9920     1D06  0085               	movwf	5	;volatile
  9921     1D07                     l3143:
  9922                           
  9923                           ;measure.c: 7:   ADFM = 1;
  9924     1D07  1683               	bsf	3,5	;RP0=1, select bank1
  9925     1D08  1303               	bcf	3,6	;RP1=0, select bank1
  9926     1D09  179F               	bsf	31,7	;volatile
  9927     1D0A                     l3145:
  9928                           
  9929                           ;measure.c: 9:   PCFG3 = 1;
  9930     1D0A  159F               	bsf	31,3	;volatile
  9931     1D0B                     l3147:
  9932                           
  9933                           ;measure.c: 10:   PCFG2 = 1;
  9934     1D0B  151F               	bsf	31,2	;volatile
  9935     1D0C                     l3149:
  9936                           
  9937                           ;measure.c: 11:   PCFG1 = 1;
  9938     1D0C  149F               	bsf	31,1	;volatile
  9939     1D0D                     l3151:
  9940                           
  9941                           ;measure.c: 12:   PCFG0 = 0;
  9942     1D0D  101F               	bcf	31,0	;volatile
  9943     1D0E                     l3153:
  9944                           
  9945                           ;measure.c: 13:   ADCS0 = 1;
  9946     1D0E  1283               	bcf	3,5	;RP0=0, select bank0
  9947     1D0F  1303               	bcf	3,6	;RP1=0, select bank0
  9948     1D10  171F               	bsf	31,6	;volatile
  9949     1D11                     l84:
  9950     1D11  0008               	return
  9951     1D12                     __end_of_initTermoDatchik:
  9952     007E                     btemp	set	126	;btemp
  9953     007E                     wtemp0	set	126
  9954                           
  9955                           	psect	idloc
  9956                           
  9957                           ;Config register IDLOC0 @ 0x2000
  9958                           ;	unspecified, using default values
  9959     2000                     	org	8192
  9960     2000  3FFF               	dw	16383
  9961                           
  9962                           ;Config register IDLOC1 @ 0x2001
  9963                           ;	unspecified, using default values
  9964     2001                     	org	8193
  9965     2001  3FFF               	dw	16383
  9966                           
  9967                           ;Config register IDLOC2 @ 0x2002
  9968                           ;	unspecified, using default values
  9969     2002                     	org	8194
  9970     2002  3FFF               	dw	16383
  9971                           
  9972                           ;Config register IDLOC3 @ 0x2003
  9973                           ;	unspecified, using default values
  9974     2003                     	org	8195
  9975     2003  3FFF               	dw	16383
  9976                           
  9977                           	psect	config
  9978                           
  9979                           ;Config register CONFIG @ 0x2007
  9980                           ;	Oscillator Selection bits
  9981                           ;	FOSC = HS, HS oscillator
  9982                           ;	Watchdog Timer Enable bit
  9983                           ;	WDTE = OFF, WDT disabled
  9984                           ;	Power-up Timer Enable bit
  9985                           ;	PWRTE = OFF, PWRT disabled
  9986                           ;	Brown-out Reset Enable bit
  9987                           ;	BOREN = OFF, BOR disabled
  9988                           ;	Low-Voltage (Single-Supply) In-Circuit Serial Programming Enable bit
  9989                           ;	LVP = OFF, RB3 is digital I/O, HV on MCLR must be used for programming
  9990                           ;	Data EEPROM Memory Code Protection bit
  9991                           ;	CPD = OFF, Data EEPROM code protection off
  9992                           ;	Flash Program Memory Write Enable bits
  9993                           ;	WRT = OFF, Write protection off; all program memory may be written to by EECON control
  9994                           ;	In-Circuit Debugger Mode bit
  9995                           ;	DEBUG = 0x1, unprogrammed default
  9996                           ;	Flash Program Memory Code Protection bit
  9997                           ;	CP = OFF, Code protection off
  9998     2007                     	org	8199
  9999     2007  3F3A               	dw	16186

Data Sizes:
    Strings     7
    Constant    144
    Data        7
    BSS         0
    Persistent  0
    Stack       0

Auto Spaces:
    Space          Size  Autos    Used
    COMMON           14     14      14
    BANK0            80     80      80
    BANK1            80     38      45
    BANK3            96      0       0
    BANK2            96      0       0

Pointer List with Targets:

    sprintf@f	PTR const unsigned char  size(1) Largest target is 7
		 -> STR_1(CODE[7]), 

    sprintf@sp	PTR unsigned char  size(1) Largest target is 7
		 -> str01(BANK1[7]), 

    sprintf@ap	PTR void [1] size(1) Largest target is 2
		 -> ?_sprintf(BANK1[2]), 


Critical Paths under _main in COMMON

    _sprintf->___lldiv
    _sprintf->___xxtofl
    ___awdiv->___awmod
    _fround->___lwdiv
    ___lwdiv->___lwmod
    ___flsub->___xxtofl
    _measure->___xxtofl
    ___flmul->___lwdiv
    ___flmul->___xxtofl
    ___fldiv->___xxtofl

Critical Paths under _main in BANK0

    _sprintf->___flsub
    _scale->___flmul
    _fround->___flmul
    ___fltol->_scale
    ___flsub->___fladd
    ___fladd->_fround
    _measure->___fldiv
    ___flmul->___awdiv
    ___fldiv->___flmul

Critical Paths under _main in BANK1

    _main->_sprintf

Critical Paths under _main in BANK3

    None.

Critical Paths under _main in BANK2

    None.

Call Graph Tables:

 ---------------------------------------------------------------------------------
 (Depth) Function   	        Calls       Base Space   Used Autos Params    Refs
 ---------------------------------------------------------------------------------
 (0) _main                                                 5     5      0   37409
                                             78 BANK0      2     2      0
                                             35 BANK1      3     3      0
                   _initTermoDatchik
                     _initialiseUART
                            _measure
                           _sendUART
                            _sprintf
 ---------------------------------------------------------------------------------
 (1) _sprintf                                             42    37      5   30954
                                              0 BANK1     35    30      5
                            ___awdiv
                            ___fladd
                             ___fleq
                             ___flge
                            ___flmul
                            ___flneg
                            ___flsub
                            ___fltol
                            ___lldiv
                            ___llmod
                             ___wmul
                           ___xxtofl
                         __div_to_l_
                        __tdiv_to_l_
                             _fround
                            _isdigit
                            _measure (ARG)
                              _scale
 ---------------------------------------------------------------------------------
 (2) _scale                                               19    15      4    7560
                                             30 BANK0     19    15      4
                            ___awdiv
                            ___awmod
                            ___flmul
 ---------------------------------------------------------------------------------
 (3) ___awmod                                              7     3      4    1208
                                              0 COMMON     7     3      4
 ---------------------------------------------------------------------------------
 (3) ___awdiv                                              9     5      4    1364
                                              7 COMMON     5     1      4
                                              0 BANK0      4     4      0
                            ___awmod (ARG)
 ---------------------------------------------------------------------------------
 (2) _isdigit                                              2     2      0      68
                                              0 COMMON     2     2      0
 ---------------------------------------------------------------------------------
 (2) _fround                                              20    16      4    6023
                                             30 BANK0     20    16      4
                            ___flmul
                            ___lwdiv
                            ___lwmod
 ---------------------------------------------------------------------------------
 (3) ___lwmod                                              6     2      4     615
                                              0 COMMON     6     2      4
 ---------------------------------------------------------------------------------
 (3) ___lwdiv                                              8     4      4     618
                                              6 COMMON     8     4      4
                            ___lwmod (ARG)
 ---------------------------------------------------------------------------------
 (2) __tdiv_to_l_                                         17     9      8     455
                                              0 COMMON    11     3      8
                                              0 BANK0      6     6      0
 ---------------------------------------------------------------------------------
 (2) __div_to_l_                                          15     7      8     455
                                              0 COMMON     9     1      8
                                              0 BANK0      6     6      0
 ---------------------------------------------------------------------------------
 (2) ___wmul                                               6     2      4     396
                                              0 COMMON     6     2      4
 ---------------------------------------------------------------------------------
 (2) ___llmod                                             10     2      8     615
                                              0 COMMON    10     2      8
 ---------------------------------------------------------------------------------
 (2) ___lldiv                                             14     6      8     466
                                              0 COMMON    14     6      8
 ---------------------------------------------------------------------------------
 (2) ___fltol                                             10     6      4     457
                                             49 BANK0     10     6      4
                            ___flmul (ARG)
                              _scale (ARG)
 ---------------------------------------------------------------------------------
 (2) ___flsub                                              8     0      8    2485
                                             70 BANK0      8     0      8
                            ___fladd
                           ___xxtofl (ARG)
 ---------------------------------------------------------------------------------
 (3) ___fladd                                             20    12      8    2288
                                             50 BANK0     20    12      8
                             _fround (ARG)
 ---------------------------------------------------------------------------------
 (2) ___flneg                                              4     0      4     121
                                              0 COMMON     4     0      4
 ---------------------------------------------------------------------------------
 (2) ___flge                                              12     4      8     790
                                              0 COMMON    12     4      8
 ---------------------------------------------------------------------------------
 (2) ___fleq                                              12     4      8     394
                                              0 COMMON    12     4      8
 ---------------------------------------------------------------------------------
 (1) _sendUART                                             1     1      0      22
                                              0 COMMON     1     1      0
 ---------------------------------------------------------------------------------
 (1) _measure                                             12     8      4    6387
                                             56 BANK0     12     8      4
                            ___fldiv
                            ___flmul
                           ___xxtofl
                              _delay
 ---------------------------------------------------------------------------------
 (2) _delay                                                2     2      0      46
                                              0 COMMON     2     2      0
 ---------------------------------------------------------------------------------
 (2) ___xxtofl                                            14    10      4     474
                                              0 COMMON    14    10      4
 ---------------------------------------------------------------------------------
 (3) ___flmul                                             26    18      8    4545
                                              4 BANK0     26    18      8
                          __Umul8_16
                            ___awdiv (ARG)
                            ___awmod (ARG)
                            ___lwdiv (ARG)
                            ___lwmod (ARG)
                           ___xxtofl (ARG)
 ---------------------------------------------------------------------------------
 (4) __Umul8_16                                            9     7      2     799
                                              0 COMMON     9     7      2
 ---------------------------------------------------------------------------------
 (2) ___fldiv                                             26    18      8    1273
                                             30 BANK0     26    18      8
                            ___flmul (ARG)
                           ___xxtofl (ARG)
 ---------------------------------------------------------------------------------
 (1) _initialiseUART                                       0     0      0       0
 ---------------------------------------------------------------------------------
 (1) _initTermoDatchik                                     0     0      0       0
 ---------------------------------------------------------------------------------
 Estimated maximum stack depth 4
 ---------------------------------------------------------------------------------

 Call Graph Graphs:

 _main (ROOT)
   _initTermoDatchik
   _initialiseUART
   _measure
     ___fldiv
       ___flmul (ARG)
         __Umul8_16
         ___awdiv (ARG)
           ___awmod (ARG)
         ___awmod (ARG)
         ___lwdiv (ARG)
           ___lwmod (ARG)
         ___lwmod (ARG)
         ___xxtofl (ARG)
       ___xxtofl (ARG)
     ___flmul
     ___xxtofl
     _delay
   _sendUART
   _sprintf
     ___awdiv
     ___fladd
       _fround (ARG)
         ___flmul
         ___lwdiv
         ___lwmod
     ___fleq
     ___flge
     ___flmul
     ___flneg
     ___flsub
       ___fladd
       ___xxtofl (ARG)
     ___fltol
       ___flmul (ARG)
       _scale (ARG)
         ___awdiv
         ___awmod
         ___flmul
     ___lldiv
     ___llmod
     ___wmul
     ___xxtofl
     __div_to_l_
     __tdiv_to_l_
     _fround
     _isdigit
     _measure (ARG)
     _scale (ARG)

 Address spaces:
Name               Size   Autos  Total    Cost      Usage
BANK3               60      0       0       9        0.0%
BITBANK3            60      0       0       8        0.0%
SFR3                 0      0       0       4        0.0%
BITSFR3              0      0       0       4        0.0%
BANK2               60      0       0      11        0.0%
BITBANK2            60      0       0      10        0.0%
SFR2                 0      0       0       5        0.0%
BITSFR2              0      0       0       5        0.0%
BANK1               50     26      2D       7       56.2%
BITBANK1            50      0       0       6        0.0%
SFR1                 0      0       0       2        0.0%
BITSFR1              0      0       0       2        0.0%
BANK0               50     50      50       5      100.0%
BITBANK0            50      0       0       4        0.0%
SFR0                 0      0       0       1        0.0%
BITSFR0              0      0       0       1        0.0%
COMMON               E      E       E       1      100.0%
BITCOMMON            E      0       0       0        0.0%
CODE                 0      0       0       0        0.0%
DATA                 0      0      8B      12        0.0%
ABS                  0      0      8B       3        0.0%
NULL                 0      0       0       0        0.0%
STACK                0      0       0       2        0.0%
EEDATA             100      0       0       0        0.0%


Microchip Technology PIC Macro Assembler V2.40 build 20220703182018 
Symbol Table                                                                                   Sat Apr 29 22:53:37 2023

            ___fldiv@aexp 0057              ___fldiv@bexp 0056                         pc 0002  
            ___fldiv@sign 004F                        l23 1FFA                        l24 1FFD  
                      l52 1CE2                        l55 1CEC                        l49 10AD  
                      l84 1D11                        l92 1158                        l95 11C9  
                      l89 1D3A                        _GO 00FA              ___awdiv@sign 0021  
                      fsr 0004       ___wmul@multiplicand 0072       __Umul8_16@word_mpld 0076  
                     l204 0FFF                       l310 1F28                       l223 021B  
                     l502 094E                       l270 07ED                       l440 1EC2  
                     l264 07AA                       l256 0649                       l601 1603  
                     l249 060B                       l530 1E69                       l274 1D6B  
                     l427 1F91                       l460 1DE4                       l276 1D83  
                     l444 01AD                       l461 1E00                       l605 1686  
                     l445 0114                       l197 15A7                       l462 1E15  
                     l622 174F                       l614 17FF                       l703 0C10  
                     l607 165F                       l455 01A0                       l632 1795  
                     l448 0170                       l465 081F                       l473 1CE0  
                     l626 1773                       l643 17F5                       l635 17D3  
                     l491 095B                       l716 10C2                       l468 088B  
                     l644 17FF                       l484 1137                       l492 08CF  
                     l580 1DC7                       l709 0C94                       l741 0060  
                     l469 08A4                       l477 114C                       l718 10D4  
                     l590 003D                       l743 00F5                       l647 1D5E  
                     l487 114C                       l495 091E                       l681 1392  
                     l673 1312                       l657 1220                       l761 1CFE  
                     l754 00BF                       l659 139C                       l755 00CB  
                     l747 00A3                       l679 1384                       l697 0CA0  
                     _TX9 04C6                       fsr0 0004                       indf 0000  
            ___awmod@sign 0076              ___flmul@aexp 0036              ___flmul@bexp 0037  
             _sprintf$776 00AA              ___flmul@sign 0031              ___flmul@temp 003C  
            ___flmul@prod 0038          ??_initialiseUART 0070              ___fltol@exp1 005A  
     measure@adc_data_raw 0062                      l3001 1279                      l2201 1E74  
                    l3011 1297                      l3003 127B                      l2211 1E88  
                    l2203 1E76                      l3005 1280                      l3013 12A0  
                    l3021 12C5                      l2141 10B8                      l3101 008C  
                    l2301 15D3                      l2221 1EA7                      l2213 1E8F  
                    l2205 1E7A                      l3031 12E2                      l3023 12CB  
                    l3015 12B2                      l3007 1292                      l2143 10BC  
                    l3111 00C3                      l3103 009A                      l2311 15E5  
                    l2303 15D6                      l2151 1F29                      l2223 1EAE  
                    l2215 1E93                      l2207 1E7F                      l3041 12F7  
                    l3033 12E3                      l3025 12D3                      l3017 12B3  
                    l3009 1296                      l2145 10CB                      l2137 10AF  
                    l3121 00ED                      l3113 00CD                      l3105 00AA  
                    l2401 16CE                      l2321 15F9                      l2313 15E6  
                    l2305 15DC                      l2241 1D96                      l2233 1D84  
                    l2161 1F3B                      l2153 1F2C                      l2217 1E97  
                    l2209 1E85                      l2225 1EB4                      l3201 0206  
                    l3131 10A6                      l3051 131C                      l3043 12FB  
                    l3035 12EC                      l3027 12D5                      l3019 12C1  
                    l2147 10D0                      l2139 10B1                      l3115 00E3  
                    l3107 00B5                      l2411 1732                      l2403 16D3  
                    l2331 1613                      l2315 15EB                      l2323 15FB  
                    l2307 15DD                      l2251 1DB6                      l2243 1D9A  
                    l2235 1D86                      l2171 1F4F                      l2163 1F40  
                    l2155 1F30                      l2227 1EB9                      l2219 1EA1  
                    l3211 0239                      l3203 0217                      l3141 1CFF  
                    l3133 10A7                      l3125 109E                      l3061 135A  
                    l3053 132A                      l3045 130F                      l3029 12DE  
                    l3037 12F2                      l2501 0994                      l3117 00E8  
                    l3109 00B9                      l2421 1765                      l2405 16E9  
                    l2413 1741                      l2341 161D                      l2333 1615  
                    l2325 1609                      l2317 15F0                      l2309 15E1  
                    l2253 1DBD                      l2245 1D9E                      l2237 1D8C  
                    l2261 000A                      l2181 1F75                      l2173 1F56  
                    l2165 1F44                      l2157 1F35                      l2229 1EBE  
                    l3301 059D                      l3221 025F                      l3213 0245  
                    l3205 0219                      l3151 1D0D                      l3143 1D07  
                    l3135 10A8                      l3127 10A3                      l3071 1388  
                    l3063 1368                      l3055 132E                      l3039 12F6  
                    l2511 09B0                      l2503 0999                      l3119 00EC  
                    l2431 177C                      l2423 176E                      l2415 1757  
                    l2407 1727                      l2351 1627                      l2343 161F  
                    l2335 1617                      l2327 160D                      l2319 15F8  
                    l2247 1DAF                      l2239 1D8F                      l2255 1DC3  
                    l2271 0026                      l2263 000D                      l2191 1F8D  
                    l2183 1F76                      l2175 1F5A                      l2167 1F46  
                    l2159 1F37                      l3311 0613                      l3303 05A2  
                    l3231 02B2                      l3223 0278                      l3215 0249  
                    l3153 1D0E                      l3145 1D0A                      l3137 10A9  
                    l3129 10A5                      l3073 138C                      l3065 1377  
                    l3057 1347                      l3049 1317                      l2601 0C7C  
                    l2521 09D1                      l2513 09B5                      l2505 099E  
                    l3081 003F                      l3161 1150                      l2441 178C  
                    l2433 1781                      l2425 1772                      l2417 175C  
                    l2409 172D                      l2361 1630                      l2353 1629  
                    l2345 1621                      l2337 1619                      l2329 1611  
                    l2281 15A8                      l2249 1DB5                      l2273 002C  
                    l2265 0014                      l2185 1F7D                      l2177 1F5E  
                    l2169 1F4C                      l3321 0640                      l3313 061A  
                    l3305 05A7                      l3241 02ED                      l3233 02BD  
                    l3225 0291                      l3217 024D                      l3209 021D  
                    l3147 1D0B                      l3139 10AA                      l3075 138E  
                    l3067 137B                      l3059 134D                      l2611 0C98  
                    l2603 0C7E                      l2531 0A5B                      l2523 09DE  
                    l2515 09BA                      l2507 09A6                      l3083 0044  
                    l3171 117A                      l3163 1155                      l3155 114D  
                    l2451 17AD                      l2443 1792                      l2427 1777  
                    l2435 1783                      l2371 1670                      l2363 1647  
                    l2355 162B                      l2347 1623                      l2339 161B  
                    l2291 15BB                      l2283 15AD                      l2275 0033  
                    l2267 0018                      l2259 0004                      l2179 1F6F  
                    l2187 1F83                      l2195 1E6A                      l3331 0660  
                    l3323 0645                      l3315 061E                      l3307 05E2  
                    l3251 037F                      l3243 02F3                      l3235 02C3  
                    l3227 0295                      l3219 025B                      l3149 1D0C  
                    l3069 1383                      l2605 0C8A                      l2541 0AB9  
                    l2533 0A77                      l2525 09F9                      l2509 09A8  
                    l3093 0071                      l3085 0048                      l2621 1D27  
                    l3173 11C1                      l3165 115C                      l3157 114D  
                    l2461 17E5                      l2453 17B1                      l2429 177A  
                    l2437 1787                      l2381 168F                      l2373 1671  
                    l2365 1663                      l2357 162D                      l2349 1625  
                    l2293 15C0                      l2285 15B1                      l2701 08BF  
                    l2269 001C                      l2277 0039                      l2189 1F88  
                    l2197 1E6B                      l3341 073D                      l3333 067E  
                    l3325 0652                      l3317 0624                      l3309 0601  
                    l3261 0407                      l3253 039A                      l3245 0312  
                    l3237 02D6                      l3229 0299                      l3181 01BA  
                    l2607 0C8E                      l2551 0B43                      l2543 0AD6  
                    l2535 0A80                      l2527 0A15                      l2519 09C3  
                    l3095 0074                      l3087 0058                      l2623 1D2D  
                    l2615 1D25                      l3167 1163                      l3159 114D  
                    l2471 17FA                      l2463 17EA                      l2455 17CF  
                    l2447 179A                      l2439 1788                      l2391 16B7  
                    l2375 167A                      l2367 166A                      l2359 162F  
                    l2295 15C8                      l2287 15B5                      l2711 08E5  
                    l2199 1E6F                      l3351 078F                      l3335 06D9  
                    l3343 0778                      l3327 0657                      l3319 0631  
                    l3271 047C                      l3263 0422                      l3247 035D  
                    l3239 02E9                      l3255 03A2                      l3431 0231  
                    l3191 01D3                      l3183 01BF                      l2609 0C8F  
                    l2561 0BD3                      l2553 0B6E                      l2545 0AED  
                    l2537 0A8E                      l2529 0A3F                      l2481 0969  
                    l3097 0081                      l3089 0068                      l3169 116F  
                    l2473 17FE                      l2465 17EB                      l2457 17D8  
                    l2449 179F                      l2393 16BE                      l2385 1698  
                    l2369 166C                      l2377 167E                      l2297 15C9  
                    l2289 15B6                      l2801 1D61                      l2721 090F  
                    l2713 08E7                      l2633 14B3                      l2625 13A0  
                    l3361 07B6                      l3345 0780                      l3337 0714  
                    l3329 065C                      l3273 0484                      l3265 0449  
                    l3281 04CA                      l3257 03B1                      l3249 0376  
                    l3353 0796                      l3193 01D7                      l3185 01C4  
                    l3177 01B1                      l2563 0BDC                      l2571 0BF0  
                    l2555 0B94                      l2547 0B0A                      l2539 0AAB  
                    l2491 097E                      l2483 096A                      l2475 095C  
                    l3099 0088                      l2467 17EF                      l2459 17DD  
                    l2395 16C0                      l2387 16AF                      l2379 168A  
                    l2299 15CB                      l2803 1D65                      l2723 0910  
                    l2715 08EE                      l2707 08D0                      l2635 14B9  
                    l2627 13A6                      l2643 0CA4                      l3363 07C5  
                    l3355 079C                      l3347 0785                      l3339 0733  
                    l3283 04FF                      l3275 04A2                      l3267 0458  
                    l3259 03F8                      l3195 01DA                      l3187 01C6  
                    l3179 01B4                      l3371 07D9                      l2573 0BF4  
                    l2565 0BE0                      l2557 0BBC                      l2549 0B35  
                    l2493 0986                      l2485 096F                      l2477 0961  
                    l2469 17F1                      l2397 16C4                      l2389 16B3  
                    l2901 1125                      l2821 1EE7                      l2813 1EC3  
                    l2805 1D72                      l2741 0943                      l2733 092A  
                    l2725 0918                      l2717 08F7                      l2709 08D6  
                    l2661 0E28                      l2645 0CA8                      l3365 07C5  
                    l3357 07A4                      l3349 0789                      l3293 0550  
                    l3285 054C                      l3269 0473                      l3373 07E9  
                    l3197 01EF                      l3189 01D2                      l2591 0C45  
                    l2583 0C15                      l2575 0BF5                      l2567 0BE1  
                    l2559 0BC5                      l2495 098B                      l2487 0974  
                    l2479 0965                      l3383 1CE2                      l2399 16C5  
                    l2911 1141                      l2831 1F1A                      l2823 1EF0  
                    l2815 1ED3                      l2807 1D79                      l2743 0953  
                    l2727 0922                      l2735 093C                      l2719 0905  
                    l2639 1564                      l2655 0D99                      l2647 0CAA  
                    l3367 07D3                      l3359 07B5                      l3287 054E  
                    l3279 04C1                      l3199 0202                      l3391 1FA0  
                    l2585 0C1A                      l2593 0C4B                      l2577 0BF9  
                    l2569 0BEA                      l2497 098F                      l2489 097C  
                    l3385 1CE8                      l2841 1DF8                      l2825 1F02  
                    l2817 1ED6                      l2833 1F20                      l2921 1E32  
                    l2913 1E16                      l2809 1D7F                      l2761 011D  
                    l2753 010A                      l2673 0F44                      l2657 0DA0  
                    l2649 0CB1                      l2665 0E55                      l3297 0587  
                    l3393 1FC7                      l2595 0C58                      l2587 0C28  
                    l2579 0C0D                      l2499 0993                      l2843 1E12  
                    l2851 0817                      l2907 112C                      l2827 1F10  
                    l2819 1EE3                      l2923 1E44                      l2915 1E1E  
                    l2771 0152                      l2763 012E                      l2747 00F6  
                    l2691 1CFD                      l2683 1CEE                      l2675 0F4B  
                    l2667 0E5C                      l3299 0591                      l3395 1FD7  
                    l3387 1F92                      l2941 11CF                      l2597 0C63  
                    l2589 0C2C                      l2845 1E14                      l2837 1DC8  
                    l2861 0867                      l2853 0833                      l2933 1D3B  
                    l2909 113C                      l2829 1F11                      l2925 1E52  
                    l2917 1E21                      l2773 0160                      l2765 0130  
                    l2749 0101                      l2685 1CEF                      l3397 1FE3  
                    l3389 1F9C                      l2951 11E2                      l2943 11D3  
                    l2599 0C72                      l2839 1DDC                      l2863 08A1  
                    l2855 083B                      l2871 1CDE                      l2935 1D3F  
                    l2927 1E5B                      l2919 1E2E                      l2775 0161  
                    l2767 0137                      l2759 0115                      l2695 08A5  
                    l2687 1CF5                      l2679 0FD3                      l3399 1FEB  
                    l2961 11FA                      l2953 11EA                      l2945 11D7  
                    l2865 08A3                      l2857 083F                      l2849 0803  
                    l2873 1CE0                      l2929 1E61                      l2793 0195  
                    l2785 017C                      l2777 016A                      l2769 0140  
                    l2697 08B6                      l2689 1CFB                      l2971 120D  
                    l2963 11FE                      l2955 11EB                      l2947 11D8  
                    l2939 11CA                      l2859 0863                      l2891 1107  
                    l2883 10E9                      l2795 01A5                      l2779 0174  
                    l2787 018E                      l2981 1234                      l2973 1215  
                    l2965 1202                      l2949 11DD                      l2957 11ED  
                    l2869 1CD6                      l2893 110B                      l2885 10FC  
                    l2877 10D5                      l2983 1238                      l2975 1216  
                    l2967 1203                      l2959 11F5                      l2887 10FD  
                    l2879 10E0                      l2799 1D5F                      l2993 124F  
                    l2969 1208                      l2977 1218                      l2889 1105  
                    l2995 1261                      l2979 1228                      l2987 1241  
                    l2899 1113                      l2997 1269                      l2989 1246  
                    l2999 1271                      _ADFM 04FF                      _ADON 00F8  
                    STR_1 1096                      _BRGH 04C2                      u3010 1F6F  
                    u3011 1F6E                      u3100 1EA1                      u3005 1F5F  
                    u3101 1EA0                      u3030 1F83                      u3031 1F82  
                    u3015 1F6B                      u4000 0BF4                      u3200 1DC3  
                    u3040 1F88                      u3120 1EB4                      u4001 0BF3  
                    u3201 1DC2                      u3041 1F87                      u3025 1F77  
                    u3121 1EB3                      u3105 1E9D                      u4010 0BF9  
                    u3210 000A                      u3130 1EB9                      u3050 1E6F  
                    u4011 0BF8                      u3211 0009                      u3131 1EB8  
                    u3115 1EA8                      u3051 1E6E                      u4020 0C0D  
                    u4100 1D3A                      u3300 15DC                      u3140 1D8C  
                    u3060 1E7A                      u4021 0C0C                      u4101 1D39  
                    u3301 15DB                      u3141 1D8B                      u3061 1E79  
                    u4030 0C14                      u3310 15E5                      u3230 001C  
                    u4110 13A6                      u3070 1E85                      u4031 0C13  
                    u3311 15E4                      u3231 001B                      u4111 13A5  
                    u3071 1E84                      u4040 0C1A                      u3400 1670  
                    u3320 15EB                      u3160 1D9E                      u3240 0026  
                    u4200 0CB1                      u4041 0C19                      u4105 1D36  
                    u3401 166F                      u3321 15EA                      u3161 1D9D  
                    u3241 0025                      u3225 000E                      u4201 0CB0  
                    u4050 0C2C                      u3330 15F0                      u5010 1E61  
                    u3090 1E97                      u4051 0C2B                      u3331 15EF  
                    u5011 1E60                      u3155 1D90                      u3091 1E96  
                    u5100 1280                      u5020 11D7                      u4060 0C3B  
                    u3500 16E9                      u3420 1686                      u3340 1609  
                    u3180 1DAF                      u3260 0039                      u5101 127F  
                    u5021 11D6                      u3501 16E8                      u3421 1685  
                    u3341 1608                      u5005 1E53                      u3181 1DAE  
                    u3261 0038                      u3245 0022                      u4125 13C3  
                    u3085 1E89                      u5030 11DD                      u4070 0C58  
                    u3430 168A                      u3350 160D                      u3270 15B5  
                    u4150 14B9                      u5031 11DC                      u4071 0C57  
                    u3511 1700                      u3503 16E5                      u3431 1689  
                    u3415 1673                      u3351 160C                      u3271 15B4  
                    u3175 1D9F                      u3255 002D                      u4151 14B8  
                    u4135 141D                      u4215 0CD1                      u5040 11E2  
                    u4080 0C72                      u3600 1787                      u3520 1714  
                    u3512 1701                      u3440 168F                      u3360 1647  
                    u3280 15BB                      u4320 0F4B                      u4240 0DA0  
                    u5041 11E1                      u4081 0C71                      u4065 0C36  
                    u3601 1786                      u3521 1715                      u3513 1706  
                    u3441 168E                      u3361 1646                      u3281 15BA  
                    u3185 1DAB                      u4145 1472                      u4321 0F4A  
                    u4305 0EB8                      u4241 0D9F                      u4225 0D0D  
                    u5210 12F6                      u5130 1296                      u5050 1202  
                    u4090 0C8E                      u3610 178C                      u3530 1732  
                    u3522 171A                      u3514 1707                      u3370 1652  
                    u3290 15C0                      u4410 0905                      u5211 12F5  
                    u5131 1295                      u5115 1282                      u5051 1201  
                    u4091 0C8D                      u4075 0C54                      u3611 178B  
                    u3531 1731                      u3523 171B                      u3515 170C  
                    u3451 16A1                      u3371 1650                      u3291 15BF  
                    u4411 0904                      u3195 1DB7                      u4315 0F03  
                    u4235 0D58                      u5300 138C                      u5220 12FB  
                    u5060 1208                      u3700 17EA                      u3620 1792  
                    u3540 1757                      u3516 170D                      u3460 16B3  
                    u3452 16A8                      u3380 1653                      u4500 0953  
                    u5301 138B                      u5221 12FA                      u5205 12E5  
                    u5125 128B                      u5061 1207                      u4085 0C6E  
                    u3701 17E9                      u3621 1791                      u3541 1756  
                    u3461 16B2                      u3453 16AF                      u3365 1643  
                    u4501 0952                      u4405 08F0                      u4165 14D6  
                    u5230 130F                      u5150 12B2                      u5070 120D  
                    u5310 0044                      u3710 17EF                      u3630 1799  
                    u3550 175C                      u3470 16B7                      u3390 1663  
                    u4510 0101                      u4430 091E                      u4190 0CA8  
                    u5231 130E                      u5151 12B1                      u5071 120C  
                    u5311 0043                      u3711 17EE                      u3631 1798  
                    u3551 175B                      u3471 16B6                      u3391 1662  
                    u4511 0100                      u4431 091D                      u4415 0901  
                    u4175 1523                      u4335 0F5E                      u4255 0DB3  
                    u4191 0CA7                      u5240 1316                      u5160 12CB  
                    u5080 1228                      u2920 10BC                      u3800 09BA  
                    u5400 00BF                      u5320 0048                      u3720 17FE  
                    u3640 179F                      u3480 16C4                      u4600 018D  
                    u4520 0113                      u4440 0922                      u4360 1CF5  
                    u4280 0E5C                      u5241 1315                      u5161 12CA  
                    u5145 1299                      u5081 1227                      u2921 10BB  
                    u3801 09B9                      u5401 00BE                      u5321 0047  
                    u3721 17FD                      u3641 179E                      u3481 16C3  
                    u4601 018C                      u4521 0112                      u4441 0921  
                    u4425 0911                      u4185 156F                      u4361 1CF4  
                    u4345 0F9A                      u4281 0E5B                      u4265 0DEF  
                    u5250 131C                      u5170 12D3                      u5090 1246  
                    u3730 0969                      u5410 00C3                      u5330 0068  
                    u3650 17B1                      u3570 1772                      u4610 0194  
                    u4450 0929                      u4370 1CFB                      u5251 131B  
                    u5171 12D2                      u5155 12AE                      u5091 1245  
                    u3811 0A07                      u3731 0968                      u5411 00C2  
                    u5331 0067                      u3651 17B0                      u3571 1771  
                    u4611 0193                      u4451 0928                      u4371 1CFA  
                    u4355 0FD6                      u4275 0E2B                      u5260 132E  
                    u2940 10D0                      u3812 0A0E                      u3740 096F  
                    u5420 00D8                      u3660 17C0                      u3580 1777  
                    u4700 1EE7                      u4540 0152                      u4380 08B6  
                    u5500 0249                      u5261 132D                      u2941 10CF  
                    u3901 0B27                      u3821 0A23                      u3813 0A15  
                    u3741 096E                      u3581 1776                      u3565 1767  
                    u4701 1EE6                      u4541 0151                      u4381 08B5  
                    u5501 0248                      u5270 133D                      u5190 12E2  
                    u3902 0B2E                      u3822 0A2A                      u3750 0974  
                    u5430 00E8                      u5350 0087                      u3670 17CF  
                    u3590 1781                      u4630 01A5                      u4470 093B  
                    u4390 08CE                      u2950 1F30                      u5510 0278  
                    u5191 12E1                      u2935 10C3                      u3911 0B52  
                    u3903 0B35                      u3831 0A4D                      u3823 0A31  
                    u3751 0973                      u5431 00E7                      u5351 0086  
                    u3671 17CE                      u3591 1780                      u3495 16C7  
                    u4631 01A4                      u4535 0139                      u4471 093A  
                    u4391 08CD                      u2951 1F2F                      u4295 0E7C  
                    u5511 0277                      u5280 135A                      u3920 0B7A  
                    u3912 0B59                      u3832 0A54                      u3760 0993  
                    u5440 00EC                      u4800 083F                      u3680 17D8  
                    u4720 1F02                      u4640 1D65                      u4560 0170  
                    u4480 0942                      u2960 1F3B                      u5600 0458  
                    u5520 02B2                      u5281 1359                      u5185 12D7  
                    u3913 0B60                      u3841 0A69                      u3833 0A5B  
                    u3761 0992                      u5441 00EB                      u5425 00D3  
                    u5345 0079                      u4801 083E                      u3681 17D7  
                    u3665 17BB                      u4721 1F01                      u4641 1D64  
                    u4625 0197                      u4561 016F                      u4545 014E  
                    u4481 0941                      u4465 092B                      u2961 1F3A  
                    u5601 0457                      u5521 02B1                      u5290 1377  
                    u3842 0A70                      u3770 0999                      u5370 00A9  
                    u5450 115C                      u3690 17DD                      u4570 0174  
                    u2970 1F4C                      u5610 0473                      u5530 02ED  
                    u5291 1376                      u5275 1338                      u3931 0B86  
                    u3843 0A77                      u3771 0998                      u5371 00A8  
                    u5451 115B                      u4811 084E                      u3691 17DC  
                    u4715 1EE9                      u4571 0173                      u4555 0163  
                    u2971 1F4B                      u5611 0472                      u5531 02EC  
                    u3940 0BA2                      u3932 0B8D                      u3780 099E  
                    u4820 0867                      u4812 084F                      u4740 1F20  
                    u4580 017B                      u5700 0657                      u5540 0376  
                    u5460 01BA                      u5285 1356                      u3933 0B94  
                    u3925 0B75                      u3861 0A9D                      u3781 099D  
                    u5365 009B                      u4821 0866                      u4813 0854  
                    u4741 1F1F                      u4725 1EFE                      u4581 017A  
                    u5701 0656                      u5605 0454                      u5541 0375  
                    u5461 01B9                      u3862 0AA4                      u3790 09B5  
                    u5390 00B9                      u4750 1DDC                      u4814 0855  
                    u4910 1124                      u4670 1D7F                      u2990 1F5E  
                    u5630 0586                      u5550 039A                      u5470 01D2  
                    u5295 1373                      u3951 0BAE                      u3871 0AC8  
                    u3863 0AAB                      u3855 0A79                      u3791 09B4  
                    u5391 00B8                      u4751 1DDB                      u4831 0876  
                    u4815 085A                      u4911 1123                      u4735 1F12  
                    u4671 1D7E                      u4655 1D6C                      u4495 0945  
                    u2991 1F5D                      u5631 0585                      u5551 0399  
                    u5471 01D1                      u3952 0BB5                      u3872 0ACF  
                    u4760 1DF8                      u4840 08A1                      u4832 0877  
                    u4816 085B                      u4920 112B                      u4680 1ED3  
                    u5800 07E9                      u5640 0591                      u5560 03B1  
                    u5480 0216                      u3953 0BBC                      u3945 0B9D  
                    u3873 0AD6                      u5385 00AE                      u4761 1DF7  
                    u4841 08A0                      u4833 087C                      u4921 112A  
                    u4905 1114                      u4681 1ED2                      u4665 1D73  
                    u2985 1F50                      u5801 07E8                      u5641 0590  
                    u5625 0553                      u5561 03B0                      u5481 0215  
                    u5810 1CE8                      u4770 1E12                      u4834 087D  
                    u4850 1CDE                      u5730 077F                      u5650 059D  
                    u5570 0407                      u5490 0245                      u3891 0AFC  
                    u5811 1CE7                      u4771 1E11                      u4835 0882  
                    u4851 1CDD                      u4595 017D                      u5731 077E  
                    u5715 06DC                      u5651 059C                      u5635 0582  
                    u5571 0406                      u5491 0244                      u3980 0BE0  
                    u3892 0B03                      u4836 0883                      u4780 0817  
                    u4940 113C                      u4860 10E0                      u5740 0795  
                    u5580 0422                      u5820 1FFA                      u3981 0BDF  
                    u3965 0BBE                      u3893 0B0A                      u3885 0AD8  
                    u4845 089D                      u4781 0816                      u4941 113B  
                    u4861 10DF                      u5741 0794                      u5725 0740  
                    u5581 0421                      u5565 03AD                      u5821 1FF9  
                    u4790 0833                      u4950 1141                      u4870 10F7  
                    u5750 079C                      u5670 0612                      u5590 0449  
                    u3975 0BD5                      u4775 1E0E                      u4791 0832  
                    u4951 1140                      u4935 112E                      u4695 1ED8  
                    u5751 079B                      u5671 0611                      u5591 0448  
                    u5575 0403                      u4880 110B                      u4960 1E1E  
                    u5760 07A4                      u5680 0631                      u4881 110A  
                    u4961 1E1D                      u5761 07A3                      u5681 0630  
                    u5665 05AA                      u5825 1FF6                      u4890 1112  
                    u5770 07B5                      u5690 0640                      u3995 0BE3  
                    u4891 1111                      u4875 10F2                      u5771 07B4  
                    u5691 063F                      u4980 1E32                      u5780 07C5  
                    u4981 1E31                      u5781 07C4                      u5685 062D  
                    u5837 1FCF                      u4990 1E44                      u5790 07D3  
                    u5847 1160                      u4991 1E43                      u4975 1E23  
                    u5791 07D2                      u5775 07B1                      u5695 063C  
                    u5785 07C1                      u4995 1E40                      _SPEN 00C7  
                    _TX9D 04C0                      _TRMT 04C1                      _TXEN 04C5  
                    _SYNC 04C4                      _main 1F92                      btemp 007E  
        _initTermoDatchik 1CFF                      start 0000           ___fldiv@new_exp 0050  
           ___fltol@sign1 0059                     _ADCS0 00FE           __end_of___fladd 1800  
                   ?_main 0070           __end_of___fldiv 139D           __end_of___awdiv 1F92  
         __end_of___flneg 1CE1           __end_of___awmod 1EC3           __end_of___flmul 0CA1  
         __end_of___flsub 1D5F           __end_of___fltol 114D           __end_of___lldiv 1F29  
         ___awdiv@divisor 0077           __end_of___llmod 1E6A                     _PCFG0 04F8  
                   _PCFG1 04F9                     _PCFG2 04FA                     _PCFG3 04FB  
         __end_of___lwdiv 1DC8           __end_of___lwmod 003E           ___awdiv@counter 0020  
                   _SPBRG 0099                     _PORTA 0005                     _TRISA 0085  
                   _TXREG 0019                     _delay 1D25           __end_of_dpowers 1096  
         __end_of_measure 11CA                     _scale 0CA1           __end_of_isdigit 1CFF  
                   _str01 00C6                     pclath 000A                     status 0003  
                   wtemp0 007E           __end_of_sprintf 07EE           __initialization 07EE  
            __end_of_main 2000                    ??_main 00C3                    ?_delay 0070  
        ___llmod@dividend 0074                    ?_scale 003E                    _ADRESH 001E  
                  _ADRESL 009E          ___awdiv@dividend 0079                    _TRISC6 043E  
                  _TRISC7 043F          __end_of___xxtofl 00F6          __end_of__powers_ 103A  
                  ___flge 0803                    ___fleq 1DC8                 ??___fladd 005A  
                  ___wmul 1D5F                 ??___fldiv 0046                 ??___awdiv 007B  
               ??___flneg 0074                 ??___awmod 0074                 ??___flmul 002C  
               ??___flsub 007E                 ??___fltol 0055                 ??___lldiv 0078  
               ??___llmod 0078                 ??___lwdiv 007A                 ??___lwmod 0074  
                  _fround 139D                    delay@i 0070          ___awdiv@quotient 0022  
         ___awmod@divisor 0070           ___awmod@counter 0075          __end_of_sendUART 1CED  
               ??_measure 005C                 ??_isdigit 0070                 ??_sprintf 00A5  
              ___flge@ff1 0070                ___flge@ff2 0074              ___xxtofl@arg 007A  
            ___xxtofl@exp 0079              ___xxtofl@val 0070                ___fleq@ff1 0070  
              ___fleq@ff2 0074   __end_of__initialization 07FC                ___flneg@f1 0070  
              ___fltol@f1 0051            __pcstackCOMMON 0070              __pidataBANK1 1CCF  
           __end_of_delay 1D3B             __end_of_scale 1000                __div_to_l_ 00F6  
__end_of_initTermoDatchik 1D12                   ??_delay 0070           __div_to_l_@exp1 0025  
         __div_to_l_@cntr 0024                   ??_scale 0042           __div_to_l_@quot 0020  
           __div_to_l_@f1 0070             __div_to_l_@f2 0074         __end_of__Umul8_16 10D5  
              __pmaintext 1F92                   ?___flge 0070                   ?___fleq 0070  
                 ?___wmul 0070                   ?_fround 003E                 ?___xxtofl 0070  
              __stringtab 1000                 ?_sendUART 0070         __end_of__npowers_ 106E  
                 ___fladd 15A8                   ___fldiv 11CA                   ___awdiv 1F29  
                 ___flneg 1CD6                   ___awmod 1E6A                   ___flmul 095C  
                 ___flsub 1D3B                   ___fltol 10D5                   ___lldiv 1EC3  
                 ___llmod 1E16                   ___lwdiv 1D84                _fround$773 004D  
              _fround$774 0049                   ___lwmod 0004                   __ptext1 01AE  
                 __ptext2 0CA1                   __ptext3 1E6A                   __ptext4 1F29  
                 __ptext5 1CED                   __ptext6 139D                   __ptext7 0004  
                 __ptext8 1D84                   __ptext9 08A5               ?__div_to_l_ 0070  
                 _dpowers 106E                   _measure 114D                   _isdigit 1CED  
              ??___xxtofl 0074          ___awmod@dividend 0072                   _sprintf 01AE  
    end_of_initialization 07FC                ??_sendUART 0070           ___lldiv@divisor 0070  
         ___lldiv@counter 007D            __tdiv_to_l_@f1 0070            __tdiv_to_l_@f2 0074  
           ??__tdiv_to_l_ 0078               ___fladd@grs 0065             ___xxtofl@sign 0078  
             ___fldiv@grs 0052               ___fldiv@rem 004B               ___flmul@grs 0032  
          __end_of___flge 08A5            __end_of___fleq 1E16            __end_of___wmul 1D84  
          __end_of_fround 15A8         ?_initTermoDatchik 0070       start_initialization 07EE  
     __end_of__tdiv_to_l_ 095C        ??_initTermoDatchik 0070           ___llmod@divisor 0070  
         ___llmod@counter 0079                  ??___flge 0078                  ??___fleq 0078  
                ??___wmul 0074                init_fetch0 1D12                 __Umul8_16 10AE  
             __pdataBANK1 00C6                  ??_fround 0042             sprintf@tmpval 00B7  
               ___fladd@a 0056                 ___fladd@b 0052                fround@prec 0051  
               ___fldiv@a 003E                 ___fldiv@b 0042                 ___flmul@a 0028  
               ___flmul@b 0024                 ___flsub@a 0066                 ___flsub@b 006A  
               ___latbits 0002             __pcstackBANK0 0020             __pcstackBANK1 00A0  
              sendUART@ch 0070       main@index_of_string 006E               sprintf@flag 00AF  
             sprintf@eexp 00B5               sprintf@fval 00BE               sprintf@prec 00BC  
          _initialiseUART 109E          ___lwdiv@dividend 0078                  ?___fladd 0052  
                ?___fldiv 003E                  ?___awdiv 0077                  ?___flneg 0070  
                ?___awmod 0070                  ?___flmul 0024                  ?___flsub 0066  
                ?___fltol 0051                  ?___lldiv 0070                  ?___llmod 0070  
               __npowers_ 103A                ?__Umul8_16 0070                  ?___lwdiv 0076  
                ?___lwmod 0070                 __pstrings 1000               __tdiv_to_l_ 08A5  
            ??__div_to_l_ 0078                  ?_measure 0058                  ?_isdigit 0070  
               _scale$775 004C          ___lwdiv@quotient 007B                  ?_sprintf 00A0  
          ___wmul@product 0074    __end_of_initialiseUART 10AE        __end_of__div_to_l_ 01AE  
         measure@adc_data 005E               __stringbase 1005         ___wmul@multiplier 0070  
         ?_initialiseUART 0070               ??__Umul8_16 0072        __end_of__stringtab 1006  
             _isdigit$605 0070                sprintf@val 00B1                  ___xxtofl 003E  
         ___lwdiv@divisor 0076           ___lwdiv@counter 007D                  __ptext10 00F6  
                __ptext11 1D5F                  __ptext20 1CE1                  __ptext12 1E16  
                __ptext21 114D                  __ptext13 1EC3                  __ptext22 1D25  
                __ptext14 10D5                  __ptext23 003E                  __ptext15 1D3B  
                __ptext24 095C                  __ptext16 15A8                  __ptext25 10AE  
                __ptext17 1CD6                  __ptext26 11CA                  __ptext18 0803  
                __ptext27 109E                  __ptext19 1DC8                  __ptext28 1CFF  
                __powers_ 1006                  _sendUART 1CE1                  init_ram0 1D16  
                isdigit@c 0071                  scale@scl 0050                 sprintf@ap 00AE  
        __tdiv_to_l_@exp1 0025          __tdiv_to_l_@cntr 0024                 sprintf@sp 00BB  
        __tdiv_to_l_@quot 0020          ___lwmod@dividend 0072          ___lldiv@dividend 0074  
               stringcode 1000              ?__tdiv_to_l_ 0070    __Umul8_16@multiplicand 0070  
                sprintf@c 00C2                  sprintf@f 00A0          ___lldiv@quotient 0079  
         ___lwmod@divisor 0070           ___lwmod@counter 0075                  stringdir 1000  
                stringtab 1000             ___fladd@signs 0062              ___fladd@aexp 0063  
            ___fladd@bexp 0064      __Umul8_16@multiplier 0078         __Umul8_16@product 0074  
